(dp1
S'output'
p2
S"<type 'exceptions.OSError'> [Errno 2] No such file or directory: '/opt/smb4manager/applications/dashboard/languages/languages'"
p3
sS'layer'
p4
S'/opt/smb4manager/applications/admin/controllers/default.py'
p5
sS'code'
p6
S'# coding: utf8\n\nEXPERIMENTAL_STUFF = True\n\nif EXPERIMENTAL_STUFF:\n    if is_mobile:\n        response.view = response.view.replace(\'default/\', \'default.mobile/\')\n        response.menu = []\n\nimport re\nfrom gluon.admin import *\nfrom gluon.fileutils import abspath, read_file, write_file\nfrom gluon.utils import web2py_uuid\nfrom glob import glob\nimport shutil\nimport platform\ntry:\n    from git import *\n    have_git = True\nexcept ImportError:\n    have_git = False\n    GIT_MISSING = \'requires gitpython module, but not installed or incompatible version\'\n\nfrom gluon.languages import (read_possible_languages, read_dict, write_dict,\n                             read_plural_dict, write_plural_dict)\n\n\nif DEMO_MODE and request.function in [\'change_password\', \'pack\', \'pack_plugin\', \'upgrade_web2py\', \'uninstall\', \'cleanup\', \'compile_app\', \'remove_compiled_app\', \'delete\', \'delete_plugin\', \'create_file\', \'upload_file\', \'update_languages\', \'reload_routes\', \'git_push\', \'git_pull\']:\n    session.flash = T(\'disabled in demo mode\')\n    redirect(URL(\'site\'))\n\n\nif not is_manager() and request.function in [\'change_password\', \'upgrade_web2py\']:\n    session.flash = T(\'disabled in multi user mode\')\n    redirect(URL(\'site\'))\n\nif FILTER_APPS and request.args(0) and not request.args(0) in FILTER_APPS:\n    session.flash = T(\'disabled in demo mode\')\n    redirect(URL(\'site\'))\n\n\nif not session.token:\n    session.token = web2py_uuid()\n\n\ndef count_lines(data):\n    return len([line for line in data.split(\'\\n\') if line.strip() and not line.startswith(\'#\')])\n\n\ndef log_progress(app, mode=\'EDIT\', filename=None, progress=0):\n    progress_file = os.path.join(apath(app, r=request), \'progress.log\')\n    now = str(request.now)[:19]\n    if not os.path.exists(progress_file):\n        safe_open(progress_file, \'w\').write(\'[%s] START\\n\' % now)\n    if filename:\n        safe_open(progress_file, \'a\').write(\n            \'[%s] %s %s: %s\\n\' % (now, mode, filename, progress))\n\n\ndef safe_open(a, b):\n    if DEMO_MODE and (\'w\' in b or \'a\' in b):\n        class tmp:\n            def write(self, data):\n                pass\n        return tmp()\n    return open(a, b)\n\n\ndef safe_read(a, b=\'r\'):\n    safe_file = safe_open(a, b)\n    try:\n        return safe_file.read()\n    finally:\n        safe_file.close()\n\n\ndef safe_write(a, value, b=\'w\'):\n    safe_file = safe_open(a, b)\n    try:\n        safe_file.write(value)\n    finally:\n        safe_file.close()\n\n\ndef get_app(name=None):\n    app = name or request.args(0)\n    if app and (not MULTI_USER_MODE or is_manager() or\n                db(db.app.name == app)(db.app.owner == auth.user.id).count()):\n        return app\n    session.flash = T(\'App does not exist or your are not authorized\')\n    redirect(URL(\'site\'))\n\n\ndef index():\n    """ Index handler """\n\n    send = request.vars.send\n    if DEMO_MODE:\n        session.authorized = True\n        session.last_time = t0\n    if not send:\n        send = URL(\'site\')\n    if session.authorized:\n        redirect(send)\n    elif request.vars.password:\n        if verify_password(request.vars.password):\n            session.authorized = True\n            login_record(True)\n\n            if CHECK_VERSION:\n                session.check_version = True\n            else:\n                session.check_version = False\n\n            session.last_time = t0\n            if isinstance(send, list):  # ## why does this happen?\n                send = str(send[0])\n\n            redirect(send)\n        else:\n            times_denied = login_record(False)\n            if times_denied >= allowed_number_of_attempts:\n                response.flash = \\\n                    T(\'admin disabled because too many invalid login attempts\')\n            elif times_denied == allowed_number_of_attempts - 1:\n                response.flash = \\\n                    T(\'You have one more login attempt before you are locked out\')\n            else:\n                response.flash = T(\'invalid password.\')\n    return dict(send=send)\n\n\ndef check_version():\n    """ Checks if web2py is up to date """\n\n    session.forget()\n    session._unlock(response)\n\n    new_version, version_number = check_new_version(request.env.web2py_version,\n                                                    WEB2PY_VERSION_URL)\n\n    if new_version == -1:\n        return A(T(\'Unable to check for upgrades\'), _href=WEB2PY_URL)\n    elif new_version != True:\n        return A(T(\'web2py is up to date\'), _href=WEB2PY_URL)\n    elif platform.system().lower() in (\'windows\', \'win32\', \'win64\') and os.path.exists("web2py.exe"):\n        return SPAN(\'You should upgrade to version %s.%s.%s\' % version_number[:3])\n    else:\n        return sp_button(URL(\'upgrade_web2py\'), T(\'upgrade now\')) \\\n            + XML(\' <strong class="upgrade_version">%s.%s.%s</strong>\'\n                  % version_number[:3])\n\n\ndef logout():\n    """ Logout handler """\n    session.authorized = None\n    if MULTI_USER_MODE:\n        redirect(URL(\'user/logout\'))\n    redirect(URL(\'index\'))\n\n\ndef change_password():\n\n    if session.pam_user:\n        session.flash = T(\n            \'PAM authenticated user, cannot change password here\')\n        redirect(URL(\'site\'))\n    form = SQLFORM.factory(Field(\'current_admin_password\', \'password\'),\n                           Field(\'new_admin_password\',\n                                 \'password\', requires=IS_STRONG()),\n                           Field(\'new_admin_password_again\', \'password\'),\n                           _class="span4 well")\n    if form.accepts(request.vars):\n        if not verify_password(request.vars.current_admin_password):\n            form.errors.current_admin_password = T(\'invalid password\')\n        elif form.vars.new_admin_password != form.vars.new_admin_password_again:\n            form.errors.new_admin_password_again = T(\'no match\')\n        else:\n            path = abspath(\'parameters_%s.py\' % request.env.server_port)\n            safe_write(path, \'password="%s"\' % CRYPT()(\n                request.vars.new_admin_password)[0])\n            session.flash = T(\'password changed\')\n            redirect(URL(\'site\'))\n    return dict(form=form)\n\n\ndef site():\n    """ Site handler """\n\n    myversion = request.env.web2py_version\n\n    # Shortcut to make the elif statements more legible\n    file_or_appurl = \'file\' in request.vars or \'appurl\' in request.vars\n\n    class IS_VALID_APPNAME(object):\n        def __call__(self, value):\n            if not re.compile(\'\\w+\').match(value):\n                return (value, T(\'Invalid application name\'))\n            if not request.vars.overwrite and \\\n                    os.path.exists(os.path.join(apath(r=request), value)):\n                return (value, T(\'Application exists already\'))\n            return (value, None)\n\n    is_appname = IS_VALID_APPNAME()\n    form_create = SQLFORM.factory(Field(\'name\', requires=is_appname),\n                                  table_name=\'appcreate\',\n                                  _class=\'well well-small\')\n    form_update = SQLFORM.factory(Field(\'name\', requires=is_appname),\n                                  Field(\'file\', \'upload\', uploadfield=False),\n                                  Field(\'url\'),\n                                  Field(\'overwrite\', \'boolean\'),\n                                  table_name=\'appupdate\',\n                                  _class=\'well well-small\')\n    form_create.process()\n    form_update.process()\n\n    if DEMO_MODE:\n        pass\n\n    elif form_create.accepted:\n        # create a new application\n        appname = cleanpath(form_create.vars.name)\n        created, error = app_create(appname, request, info=True)\n        if created:\n            if MULTI_USER_MODE:\n                db.app.insert(name=appname, owner=auth.user.id)\n            log_progress(appname)\n            session.flash = T(\'new application "%s" created\', appname)\n            redirect(URL(\'design\', args=appname))\n        else:\n            session.flash = \\\n                DIV(T(\'unable to create application "%s"\' % appname),\n                    PRE(error))\n        redirect(URL(r=request))\n\n    elif form_update.accepted:\n        if (form_update.vars.url or \'\').endswith(\'.git\'):\n            if not have_git:\n                session.flash = GIT_MISSING\n                redirect(URL(r=request))\n            target = os.path.join(apath(r=request), form_update.vars.name)\n            try:\n                new_repo = Repo.clone_from(form_update.vars.url, target)\n                session.flash = T(\'new application "%s" imported\',\n                                  form_update.vars.name)\n            except GitCommandError, err:\n                session.flash = T(\'Invalid git repository specified.\')\n            redirect(URL(r=request))\n\n        elif form_update.vars.url:\n            # fetch an application via URL or file upload\n            try:\n                f = urllib.urlopen(form_update.vars.url)\n                if f.code == 404:\n                    raise Exception("404 file not found")\n            except Exception, e:\n                session.flash = \\\n                    DIV(T(\'Unable to download app because:\'), PRE(str(e)))\n                redirect(URL(r=request))\n            fname = form_update.vars.url\n\n        elif form_update.accepted and form_update.vars.file:\n            fname = request.vars.file.filename\n            f = request.vars.file.file\n\n        else:\n            session.flash = \'No file uploaded and no URL specified\'\n            redirect(URL(r=request))\n\n        if f:\n            appname = cleanpath(form_update.vars.name)\n            installed = app_install(appname, f,\n                                    request, fname,\n                                    overwrite=form_update.vars.overwrite)\n        if f and installed:\n            msg = \'application %(appname)s installed with md5sum: %(digest)s\'\n            if MULTI_USER_MODE:\n                db.app.insert(name=appname, owner=auth.user.id)\n            log_progress(appname)\n            session.flash = T(msg, dict(appname=appname,\n                                        digest=md5_hash(installed)))\n        elif f and form_update.vars.overwrite:\n            msg = \'unable to install application "%(appname)s"\'\n            session.flash = T(msg, dict(appname=form_update.vars.name))\n        else:\n            msg = \'unable to install application "%(appname)s"\'\n            session.flash = T(msg, dict(appname=form_update.vars.name))\n        redirect(URL(r=request))\n\n    regex = re.compile(\'^\\w+$\')\n\n    if is_manager():\n        apps = [f for f in os.listdir(apath(r=request)) if regex.match(f)]\n    else:\n        apps = [f.name for f in db(db.app.owner == auth.user_id).select()]\n\n    if FILTER_APPS:\n        apps = [f for f in apps if f in FILTER_APPS]\n\n    apps = sorted(apps, lambda a, b: cmp(a.upper(), b.upper()))\n\n    return dict(app=None, apps=apps, myversion=myversion,\n                form_create=form_create, form_update=form_update)\n\n\ndef report_progress(app):\n    import datetime\n    progress_file = os.path.join(apath(app, r=request), \'progress.log\')\n    regex = re.compile(\'\\[(.*?)\\][^\\:]+\\:\\s+(\\-?\\d+)\')\n    if not os.path.exists(progress_file):\n        return []\n    matches = regex.findall(open(progress_file, \'r\').read())\n    events, counter = [], 0\n    for m in matches:\n        if not m:\n            continue\n        days = -(request.now - datetime.datetime.strptime(m[0],\n                 \'%Y-%m-%d %H:%M:%S\')).days\n        counter += int(m[1])\n        events.append([days, counter])\n    return events\n\n\ndef pack():\n    app = get_app()\n\n    try:\n        if len(request.args) == 1:\n            fname = \'web2py.app.%s.w2p\' % app\n            filename = app_pack(app, request, raise_ex=True)\n        else:\n            fname = \'web2py.app.%s.compiled.w2p\' % app\n            filename = app_pack_compiled(app, request, raise_ex=True)\n    except Exception, e:\n        filename = None\n\n    if filename:\n        response.headers[\'Content-Type\'] = \'application/w2p\'\n        disposition = \'attachment; filename=%s\' % fname\n        response.headers[\'Content-Disposition\'] = disposition\n        return safe_read(filename, \'rb\')\n    else:\n        session.flash = T(\'internal error: %s\' % e)\n        redirect(URL(\'site\'))\n\n\ndef pack_plugin():\n    app = get_app()\n    if len(request.args) == 2:\n        fname = \'web2py.plugin.%s.w2p\' % request.args[1]\n        filename = plugin_pack(app, request.args[1], request)\n    if filename:\n        response.headers[\'Content-Type\'] = \'application/w2p\'\n        disposition = \'attachment; filename=%s\' % fname\n        response.headers[\'Content-Disposition\'] = disposition\n        return safe_read(filename, \'rb\')\n    else:\n        session.flash = T(\'internal error\')\n        redirect(URL(\'plugin\', args=request.args))\n\n\ndef upgrade_web2py():\n    dialog = FORM.confirm(T(\'Upgrade\'),\n                          {T(\'Cancel\'): URL(\'site\')})\n    if dialog.accepted:\n        (success, error) = upgrade(request)\n        if success:\n            session.flash = T(\'web2py upgraded; please restart it\')\n        else:\n            session.flash = T(\'unable to upgrade because "%s"\', error)\n        redirect(URL(\'site\'))\n    return dict(dialog=dialog)\n\n\ndef uninstall():\n    app = get_app()\n\n    dialog = FORM.confirm(T(\'Uninstall\'),\n                          {T(\'Cancel\'): URL(\'site\')})\n    dialog[\'_id\'] = \'confirm_form\'\n    dialog[\'_class\'] = \'well\'\n    for component in dialog.components:\n        component[\'_class\'] = \'btn\'\n\n    if dialog.accepted:\n        if MULTI_USER_MODE:\n            if is_manager() and db(db.app.name == app).delete():\n                pass\n            elif db(db.app.name == app)(db.app.owner == auth.user.id).delete():\n                pass\n            else:\n                session.flash = T(\'no permission to uninstall "%s"\', app)\n                redirect(URL(\'site\'))\n        try:\n            filename = app_pack(app, request, raise_ex=True)\n        except:\n            session.flash = T(\'unable to uninstall "%s"\', app)\n        else:\n            if app_uninstall(app, request):\n                session.flash = T(\'application "%s" uninstalled\', app)\n            else:\n                session.flash = T(\'unable to uninstall "%s"\', app)\n        redirect(URL(\'site\'))\n    return dict(app=app, dialog=dialog)\n\n\ndef cleanup():\n    app = get_app()\n    clean = app_cleanup(app, request)\n    if not clean:\n        session.flash = T("some files could not be removed")\n    else:\n        session.flash = T(\'cache, errors and sessions cleaned\')\n\n    redirect(URL(\'site\'))\n\n\ndef compile_app():\n    app = get_app()\n    c = app_compile(app, request)\n    if not c:\n        session.flash = T(\'application compiled\')\n    else:\n        session.flash = DIV(T(\'Cannot compile: there are errors in your app:\'),\n                            CODE(c))\n    redirect(URL(\'site\'))\n\n\ndef remove_compiled_app():\n    """ Remove the compiled application """\n    app = get_app()\n    remove_compiled_application(apath(app, r=request))\n    session.flash = T(\'compiled application removed\')\n    redirect(URL(\'site\'))\n\n\ndef delete():\n    """ Object delete handler """\n    app = get_app()\n    filename = \'/\'.join(request.args)\n    sender = request.vars.sender\n\n    if isinstance(sender, list):  # ## fix a problem with Vista\n        sender = sender[0]\n\n    if \'nodelete\' in request.vars:\n        redirect(URL(sender, anchor=request.vars.id))\n    elif \'delete\' in request.vars:\n        try:\n            full_path = apath(filename, r=request)\n            lineno = count_lines(open(full_path, \'r\').read())\n            os.unlink(full_path)\n            log_progress(app, \'DELETE\', filename, progress=-lineno)\n            session.flash = T(\'file "%(filename)s" deleted\',\n                              dict(filename=filename))\n        except Exception:\n            session.flash = T(\'unable to delete file "%(filename)s"\',\n                              dict(filename=filename))\n        redirect(URL(sender, anchor=request.vars.id2))\n    return dict(filename=filename, sender=sender)\n\n\ndef delete():\n    """ Object delete handler """\n    app = get_app()\n    filename = \'/\'.join(request.args)\n    sender = request.vars.sender\n\n    if isinstance(sender, list):  # ## fix a problem with Vista\n        sender = sender[0]\n\n    dialog = FORM.confirm(T(\'Delete\'),\n                          {T(\'Cancel\'): URL(sender, anchor=request.vars.id)})\n\n    if dialog.accepted:\n        try:\n            full_path = apath(filename, r=request)\n            lineno = count_lines(open(full_path, \'r\').read())\n            os.unlink(full_path)\n            log_progress(app, \'DELETE\', filename, progress=-lineno)\n            session.flash = T(\'file "%(filename)s" deleted\',\n                              dict(filename=filename))\n        except Exception:\n            session.flash = T(\'unable to delete file "%(filename)s"\',\n                              dict(filename=filename))\n        redirect(URL(sender, anchor=request.vars.id2))\n    return dict(dialog=dialog, filename=filename)\n\n\ndef enable():\n    app = get_app()\n    filename = os.path.join(apath(app, r=request), \'DISABLED\')\n    if is_gae:\n        return SPAN(T(\'Not supported\'), _style=\'color:yellow\')\n    elif os.path.exists(filename):\n        os.unlink(filename)\n        return SPAN(T(\'Disable\'), _style=\'color:green\')\n    else:\n        safe_open(filename, \'wb\').write(time.ctime())\n        return SPAN(T(\'Enable\'), _style=\'color:red\')\n\n\ndef peek():\n    """ Visualize object code """\n    app = get_app(request.vars.app)\n    filename = \'/\'.join(request.args)\n    if request.vars.app:\n        path = abspath(filename)\n    else:\n        path = apath(filename, r=request)\n    try:\n        data = safe_read(path).replace(\'\\r\', \'\')\n    except IOError:\n        session.flash = T(\'file does not exist\')\n        redirect(URL(\'site\'))\n\n    extension = filename[filename.rfind(\'.\') + 1:].lower()\n\n    return dict(app=app,\n                filename=filename,\n                data=data,\n                extension=extension)\n\n\ndef test():\n    """ Execute controller tests """\n    app = get_app()\n    if len(request.args) > 1:\n        file = request.args[1]\n    else:\n        file = \'.*\\.py\'\n\n    controllers = listdir(\n        apath(\'%s/controllers/\' % app, r=request), file + \'$\')\n\n    return dict(app=app, controllers=controllers)\n\n\ndef keepalive():\n    return \'\'\n\n\ndef search():\n    keywords = request.vars.keywords or \'\'\n    app = get_app()\n\n    def match(filename, keywords):\n        filename = os.path.join(apath(app, r=request), filename)\n        if keywords in read_file(filename, \'rb\'):\n            return True\n        return False\n    path = apath(request.args[0], r=request)\n    files1 = glob(os.path.join(path, \'*/*.py\'))\n    files2 = glob(os.path.join(path, \'*/*.html\'))\n    files3 = glob(os.path.join(path, \'*/*/*.html\'))\n    files = [x[len(path) + 1:].replace(\n        \'\\\\\', \'/\') for x in files1 + files2 + files3 if match(x, keywords)]\n    return response.json(dict(files=files, message=T.M(\'Searching: **%s** %%{file}\', len(files))))\n\n\ndef edit():\n    """ File edit handler """\n    # Load json only if it is ajax edited...\n    app = get_app(request.vars.app)\n    filename = \'/\'.join(request.args)\n    if request.vars.app:\n        path = abspath(filename)\n    else:\n        path = apath(filename, r=request)\n     # Try to discover the file type\n    if filename[-3:] == \'.py\':\n        filetype = \'python\'\n    elif filename[-5:] == \'.html\':\n        filetype = \'html\'\n    elif filename[-5:] == \'.load\':\n        filetype = \'html\'\n    elif filename[-4:] == \'.css\':\n        filetype = \'css\'\n    elif filename[-3:] == \'.js\':\n        filetype = \'js\'\n    else:\n        filetype = \'html\'\n\n    # ## check if file is not there\n    if (\'revert\' in request.vars) and os.path.exists(path + \'.bak\'):\n        try:\n            data = safe_read(path + \'.bak\')\n            data1 = safe_read(path)\n        except IOError:\n            session.flash = T(\'Invalid action\')\n            if \'from_ajax\' in request.vars:\n                return response.json({\'error\': str(T(\'Invalid action\'))})\n            else:\n                redirect(URL(\'site\'))\n\n        safe_write(path, data)\n        file_hash = md5_hash(data)\n        saved_on = time.ctime(os.stat(path)[stat.ST_MTIME])\n        safe_write(path + \'.bak\', data1)\n        response.flash = T(\'file "%s" of %s restored\', (filename, saved_on))\n    else:\n        try:\n            data = safe_read(path)\n        except IOError:\n            session.flash = T(\'Invalid action\')\n            if \'from_ajax\' in request.vars:\n                return response.json({\'error\': str(T(\'Invalid action\'))})\n            else:\n                redirect(URL(\'site\'))\n\n        lineno_old = count_lines(data)\n        file_hash = md5_hash(data)\n        saved_on = time.ctime(os.stat(path)[stat.ST_MTIME])\n\n        if request.vars.file_hash and request.vars.file_hash != file_hash:\n            session.flash = T(\'file changed on disk\')\n            data = request.vars.data.replace(\'\\r\\n\', \'\\n\').strip() + \'\\n\'\n            safe_write(path + \'.1\', data)\n            if \'from_ajax\' in request.vars:\n                return response.json({\'error\': str(T(\'file changed on disk\')),\n                                      \'redirect\': URL(\'resolve\',\n                                                      args=request.args)})\n            else:\n                redirect(URL(\'resolve\', args=request.args))\n        elif request.vars.data:\n            safe_write(path + \'.bak\', data)\n            data = request.vars.data.replace(\'\\r\\n\', \'\\n\').strip() + \'\\n\'\n            safe_write(path, data)\n            lineno_new = count_lines(data)\n            log_progress(\n                app, \'EDIT\', filename, progress=lineno_new - lineno_old)\n            file_hash = md5_hash(data)\n            saved_on = time.ctime(os.stat(path)[stat.ST_MTIME])\n            response.flash = T(\'file saved on %s\', saved_on)\n\n    data_or_revert = (request.vars.data or request.vars.revert)\n\n    # Check compile errors\n    highlight = None\n    if filetype == \'python\' and request.vars.data:\n        import _ast\n        try:\n            code = request.vars.data.rstrip().replace(\'\\r\\n\', \'\\n\') + \'\\n\'\n            compile(code, path, "exec", _ast.PyCF_ONLY_AST)\n        except Exception, e:\n            start = sum([len(line) + 1 for l, line\n                         in enumerate(request.vars.data.split("\\n"))\n                         if l < e.lineno - 1])\n            if e.text and e.offset:\n                offset = e.offset - (len(e.text) - len(\n                    e.text.splitlines()[-1]))\n            else:\n                offset = 0\n            highlight = {\'start\': start, \'end\': start +\n                         offset + 1, \'lineno\': e.lineno}\n            try:\n                ex_name = e.__class__.__name__\n            except:\n                ex_name = \'unknown exception!\'\n            response.flash = DIV(T(\'failed to compile file because:\'), BR(),\n                                 B(ex_name), \' \' + T(\'at line %s\', e.lineno),\n                                 offset and \' \' +\n                                 T(\'at char %s\', offset) or \'\',\n                                 PRE(str(e)))\n\n    if data_or_revert and request.args[1] == \'modules\':\n        # Lets try to reload the modules\n        try:\n            mopath = \'.\'.join(request.args[2:])[:-3]\n            exec \'import applications.%s.modules.%s\' % (\n                request.args[0], mopath)\n            reload(sys.modules[\'applications.%s.modules.%s\'\n                               % (request.args[0], mopath)])\n        except Exception, e:\n            response.flash = DIV(\n                T(\'failed to reload module because:\'), PRE(str(e)))\n\n    edit_controller = None\n    editviewlinks = None\n    view_link = None\n    if filetype == \'html\' and len(request.args) >= 3:\n        cfilename = os.path.join(request.args[0], \'controllers\',\n                                 request.args[2] + \'.py\')\n        if os.path.exists(apath(cfilename, r=request)):\n            edit_controller = URL(\'edit\', args=[cfilename])\n            view = request.args[3].replace(\'.html\', \'\')\n            view_link = URL(request.args[0], request.args[2], view)\n    elif filetype == \'python\' and request.args[1] == \'controllers\':\n        ## it\'s a controller file.\n        ## Create links to all of the associated view files.\n        app = get_app()\n        viewname = os.path.splitext(request.args[2])[0]\n        viewpath = os.path.join(app, \'views\', viewname)\n        aviewpath = apath(viewpath, r=request)\n        viewlist = []\n        if os.path.exists(aviewpath):\n            if os.path.isdir(aviewpath):\n                viewlist = glob(os.path.join(aviewpath, \'*.html\'))\n        elif os.path.exists(aviewpath + \'.html\'):\n            viewlist.append(aviewpath + \'.html\')\n        if len(viewlist):\n            editviewlinks = []\n            for v in viewlist:\n                vf = os.path.split(v)[-1]\n                vargs = "/".join([viewpath.replace(os.sep, "/"), vf])\n                editviewlinks.append(A(vf.split(".")[0],\n                                       _href=URL(\'edit\', args=[vargs])))\n\n    if len(request.args) > 2 and request.args[1] == \'controllers\':\n        controller = (request.args[2])[:-3]\n        functions = regex_expose.findall(data)\n    else:\n        (controller, functions) = (None, None)\n\n    if \'from_ajax\' in request.vars:\n        return response.json({\'file_hash\': file_hash, \'saved_on\': saved_on, \'functions\': functions, \'controller\': controller, \'application\': request.args[0], \'highlight\': highlight})\n    else:\n\n        editarea_preferences = {}\n        editarea_preferences[\'FONT_SIZE\'] = \'10\'\n        editarea_preferences[\'FULL_SCREEN\'] = \'false\'\n        editarea_preferences[\'ALLOW_TOGGLE\'] = \'true\'\n        editarea_preferences[\'REPLACE_TAB_BY_SPACES\'] = \'4\'\n        editarea_preferences[\'DISPLAY\'] = \'onload\'\n        for key in editarea_preferences:\n            if key in globals():\n                editarea_preferences[key] = globals()[key]\n        return dict(app=request.args[0],\n                    filename=filename,\n                    filetype=filetype,\n                    data=data,\n                    edit_controller=edit_controller,\n                    file_hash=file_hash,\n                    saved_on=saved_on,\n                    controller=controller,\n                    functions=functions,\n                    view_link=view_link,\n                    editarea_preferences=editarea_preferences,\n                    editviewlinks=editviewlinks)\n\n\ndef resolve():\n    """\n    """\n\n    filename = \'/\'.join(request.args)\n    # ## check if file is not there\n    path = apath(filename, r=request)\n    a = safe_read(path).split(\'\\n\')\n    try:\n        b = safe_read(path + \'.1\').split(\'\\n\')\n    except IOError:\n        session.flash = \'Other file, no longer there\'\n        redirect(URL(\'edit\', args=request.args))\n\n    d = difflib.ndiff(a, b)\n\n    def leading(line):\n        """  """\n\n        # TODO: we really need to comment this\n        z = \'\'\n        for (k, c) in enumerate(line):\n            if c == \' \':\n                z += \'&nbsp;\'\n            elif c == \' \\t\':\n                z += \'&nbsp;\'\n            elif k == 0 and c == \'?\':\n                pass\n            else:\n                break\n\n        return XML(z)\n\n    def getclass(item):\n        """ Determine item class """\n\n        if item[0] == \' \':\n            return \'normal\'\n        if item[0] == \'+\':\n            return \'plus\'\n        if item[0] == \'-\':\n            return \'minus\'\n\n    if request.vars:\n        c = \'\\n\'.join([item[2:].rstrip() for (i, item) in enumerate(d) if item[0]\n                       == \' \' or \'line%i\' % i in request.vars])\n        safe_write(path, c)\n        session.flash = \'files merged\'\n        redirect(URL(\'edit\', args=request.args))\n    else:\n        # Making the short circuit compatible with <= python2.4\n        gen_data = lambda index, item: not item[:1] in [\'+\', \'-\'] and "" \\\n            or INPUT(_type=\'checkbox\',\n                     _name=\'line%i\' % index,\n                     value=item[0] == \'+\')\n\n        diff = TABLE(*[TR(TD(gen_data(i, item)),\n                          TD(item[0]),\n                          TD(leading(item[2:]),\n                          TT(item[2:].rstrip())),\n                          _class=getclass(item))\n                       for (i, item) in enumerate(d) if item[0] != \'?\'])\n\n    return dict(diff=diff, filename=filename)\n\n\ndef edit_language():\n    """ Edit language file """\n    app = get_app()\n    filename = \'/\'.join(request.args)\n    strings = read_dict(apath(filename, r=request))\n\n    if \'__corrupted__\' in strings:\n        form = SPAN(strings[\'__corrupted__\'], _class=\'error\')\n        return dict(filename=filename, form=form)\n\n    keys = sorted(strings.keys(), lambda x, y: cmp(\n        unicode(x, \'utf-8\').lower(), unicode(y, \'utf-8\').lower()))\n    rows = []\n    rows.append(H2(T(\'Original/Translation\')))\n\n    for key in keys:\n        name = md5_hash(key)\n        s = strings[key]\n        (prefix, sep, key) = key.partition(\'\\x01\')\n        if sep:\n            prefix = SPAN(prefix + \': \', _class=\'tm_ftag\')\n            k = key\n        else:\n            (k, prefix) = (prefix, \'\')\n\n        _class = \'untranslated\' if k == s else \'translated\'\n\n        if len(s) <= 40:\n            elem = INPUT(_type=\'text\', _name=name, value=s,\n                         _size=70, _class=_class)\n        else:\n            elem = TEXTAREA(_name=name, value=s, _cols=70,\n                            _rows=5, _class=_class)\n\n        # Making the short circuit compatible with <= python2.4\n        k = (s != k) and k or B(k)\n\n        new_row = DIV(LABEL(prefix, k, _style="font-weight:normal;"),\n                      CAT(elem, \'\\n\', TAG.BUTTON(\n                    T(\'delete\'),\n                    _onclick=\'return delkey("%s")\' % name,\n                    _class=\'btn\')), _id=name, _class=\'span6 well well-small\')\n\n        rows.append(DIV(new_row,_class="row-fluid"))\n    rows.append(DIV(INPUT(_type=\'submit\', _value=T(\'update\'), _class="btn btn-primary"), _class=\'controls\'))\n    form = FORM(*rows)\n    if form.accepts(request.vars, keepvalues=True):\n        strs = dict()\n        for key in keys:\n            name = md5_hash(key)\n            if form.vars[name] == chr(127):\n                continue\n            strs[key] = form.vars[name]\n        write_dict(apath(filename, r=request), strs)\n        session.flash = T(\'file saved on %(time)s\', dict(time=time.ctime()))\n        redirect(URL(r=request, args=request.args))\n    return dict(app=request.args[0], filename=filename, form=form)\n\n\ndef edit_plurals():\n    """ Edit plurals file """\n    app = get_app()\n    filename = \'/\'.join(request.args)\n    plurals = read_plural_dict(\n        apath(filename, r=request))  # plural forms dictionary\n    nplurals = int(request.vars.nplurals) - 1  # plural forms quantity\n    xnplurals = xrange(nplurals)\n\n    if \'__corrupted__\' in plurals:\n        # show error message and exit\n        form = SPAN(plurals[\'__corrupted__\'], _class=\'error\')\n        return dict(filename=filename, form=form)\n\n    keys = sorted(plurals.keys(), lambda x, y: cmp(\n        unicode(x, \'utf-8\').lower(), unicode(y, \'utf-8\').lower()))\n    tab_rows = []\n    for key in keys:\n        name = md5_hash(key)\n        forms = plurals[key]\n\n        if len(forms) < nplurals:\n            forms.extend(None for i in xrange(nplurals - len(forms)))\n        tab_col1 = DIV(CAT(LABEL(T("Singular Form")), B(key,\n                                                        _class=\'fake-input\')))\n        tab_inputs = [SPAN(LABEL(T("Plural Form #%s", n + 1)), INPUT(_type=\'text\', _name=name + \'_\' + str(n), value=forms[n], _size=20), _class=\'span6\') for n in xnplurals]\n        tab_col2 = DIV(CAT(*tab_inputs))\n        tab_col3 = DIV(CAT(LABEL(XML(\'&nbsp;\')), TAG.BUTTON(T(\'delete\'), _onclick=\'return delkey("%s")\' % name, _class=\'btn\'), _class=\'span6\'))\n        tab_row = DIV(DIV(tab_col1, \'\\n\', tab_col2, \'\\n\', tab_col3, _class=\'well well-small\'), _id=name, _class=\'row-fluid tab_row\')\n        tab_rows.append(tab_row)\n\n    tab_rows.append(DIV(TAG[\'button\'](T(\'update\'), _type=\'submit\',\n                                      _class=\'btn btn-primary\'),\n                        _class=\'controls\'))\n    tab_container = DIV(*tab_rows, **dict(_class="row-fluid"))\n\n    form = FORM(tab_container)\n    if form.accepts(request.vars, keepvalues=True):\n        new_plurals = dict()\n        for key in keys:\n            name = md5_hash(key)\n            if form.vars[name + \'_0\'] == chr(127):\n                continue\n            new_plurals[key] = [form.vars[name + \'_\' + str(n)]\n                                for n in xnplurals]\n        write_plural_dict(apath(filename, r=request), new_plurals)\n        session.flash = T(\'file saved on %(time)s\', dict(time=time.ctime()))\n        redirect(URL(r=request, args=request.args, vars=dict(\n            nplurals=request.vars.nplurals)))\n    return dict(app=request.args[0], filename=filename, form=form)\n\n\ndef about():\n    """ Read about info """\n    app = get_app()\n    # ## check if file is not there\n    about = safe_read(apath(\'%s/ABOUT\' % app, r=request))\n    license = safe_read(apath(\'%s/LICENSE\' % app, r=request))\n    return dict(app=app, about=MARKMIN(about), license=MARKMIN(license), progress=report_progress(app))\n\n\ndef design():\n    """ Application design handler """\n    app = get_app()\n\n    if not response.flash and app == request.application:\n        msg = T(\'ATTENTION: you cannot edit the running application!\')\n        response.flash = msg\n\n    if request.vars and not request.vars.token == session.token:\n        redirect(URL(\'logout\'))\n\n    if request.vars.pluginfile is not None and not isinstance(request.vars.pluginfile, str):\n        filename = os.path.basename(request.vars.pluginfile.filename)\n        if plugin_install(app, request.vars.pluginfile.file,\n                          request, filename):\n            session.flash = T(\'new plugin installed\')\n            redirect(URL(\'design\', args=app))\n        else:\n            session.flash = \\\n                T(\'unable to create application "%s"\', request.vars.filename)\n        redirect(URL(r=request))\n    elif isinstance(request.vars.pluginfile, str):\n        session.flash = T(\'plugin not specified\')\n        redirect(URL(r=request))\n\n    # If we have only pyc files it means that\n    # we cannot design\n    if os.path.exists(apath(\'%s/compiled\' % app, r=request)):\n        session.flash = \\\n            T(\'application is compiled and cannot be designed\')\n        redirect(URL(\'site\'))\n\n    # Get all models\n    models = listdir(apath(\'%s/models/\' % app, r=request), \'.*\\.py$\')\n    models = [x.replace(\'\\\\\', \'/\') for x in models]\n    defines = {}\n    for m in models:\n        data = safe_read(apath(\'%s/models/%s\' % (app, m), r=request))\n        defines[m] = regex_tables.findall(data)\n        defines[m].sort()\n\n    # Get all controllers\n    controllers = sorted(\n        listdir(apath(\'%s/controllers/\' % app, r=request), \'.*\\.py$\'))\n    controllers = [x.replace(\'\\\\\', \'/\') for x in controllers]\n    functions = {}\n    for c in controllers:\n        data = safe_read(apath(\'%s/controllers/%s\' % (app, c), r=request))\n        items = regex_expose.findall(data)\n        functions[c] = items\n\n    # Get all views\n    views = sorted(\n        listdir(apath(\'%s/views/\' % app, r=request), \'[\\w/\\-]+(\\.\\w+)+$\'))\n    views = [x.replace(\'\\\\\', \'/\') for x in views if not x.endswith(\'.bak\')]\n    extend = {}\n    include = {}\n    for c in views:\n        data = safe_read(apath(\'%s/views/%s\' % (app, c), r=request))\n        items = regex_extend.findall(data)\n\n        if items:\n            extend[c] = items[0][1]\n\n        items = regex_include.findall(data)\n        include[c] = [i[1] for i in items]\n\n    # Get all modules\n    modules = listdir(apath(\'%s/modules/\' % app, r=request), \'.*\\.py$\')\n    modules = modules = [x.replace(\'\\\\\', \'/\') for x in modules]\n    modules.sort()\n\n    # Get all private files\n    privates = listdir(apath(\'%s/private/\' % app, r=request), \'[^\\.#].*\')\n    privates = [x.replace(\'\\\\\', \'/\') for x in privates]\n    privates.sort()\n\n    # Get all static files\n    statics = listdir(apath(\'%s/static/\' % app, r=request), \'[^\\.#].*\')\n    statics = [x.replace(\'\\\\\', \'/\') for x in statics]\n    statics.sort()\n\n    # Get all languages\n    langpath = os.path.join(apath(app, r=request),\'languages\')\n    languages = dict([(lang, info) for lang, info\n                      in read_possible_languages(langpath).iteritems()\n                      if info[2] != 0])  # info[2] is langfile_mtime:\n                                         # get only existed files\n\n    #Get crontab\n    cronfolder = apath(\'%s/cron\' % app, r=request)\n    if not os.path.exists(cronfolder):\n        os.mkdir(cronfolder)\n    crontab = apath(\'%s/cron/crontab\' % app, r=request)\n    if not os.path.exists(crontab):\n        safe_write(crontab, \'#crontab\')\n\n    plugins = []\n\n    def filter_plugins(items, plugins):\n        plugins += [item[7:].split(\'/\')[0].split(\n            \'.\')[0] for item in items if item.startswith(\'plugin_\')]\n        plugins[:] = list(set(plugins))\n        plugins.sort()\n        return [item for item in items if not item.startswith(\'plugin_\')]\n\n    return dict(app=app,\n                models=filter_plugins(models, plugins),\n                defines=defines,\n                controllers=filter_plugins(controllers, plugins),\n                functions=functions,\n                views=filter_plugins(views, plugins),\n                modules=filter_plugins(modules, plugins),\n                extend=extend,\n                include=include,\n                privates=filter_plugins(privates, plugins),\n                statics=filter_plugins(statics, plugins),\n                languages=languages,\n                crontab=crontab,\n                plugins=plugins)\n\n\ndef delete_plugin():\n    """ Object delete handler """\n    app = request.args(0)\n    plugin = request.args(1)\n    plugin_name = \'plugin_\' + plugin\n\n    dialog = FORM.confirm(\n        T(\'Delete\'),\n        {T(\'Cancel\'): URL(\'design\', args=app)})\n\n    if dialog.accepted:\n        try:\n            for folder in [\'models\', \'views\', \'controllers\', \'static\', \'modules\', \'private\']:\n                path = os.path.join(apath(app, r=request), folder)\n                for item in os.listdir(path):\n                    if item.rsplit(\'.\', 1)[0] == plugin_name:\n                        filename = os.path.join(path, item)\n                        if os.path.isdir(filename):\n                            shutil.rmtree(filename)\n                        else:\n                            os.unlink(filename)\n            session.flash = T(\'plugin "%(plugin)s" deleted\',\n                              dict(plugin=plugin))\n        except Exception:\n            session.flash = T(\'unable to delete file plugin "%(plugin)s"\',\n                              dict(plugin=plugin))\n        redirect(URL(\'design\', args=request.args(0), anchor=request.vars.id2))\n    return dict(dialog=dialog, plugin=plugin)\n\n\ndef plugin():\n    """ Application design handler """\n    app = get_app()\n    plugin = request.args(1)\n\n    if not response.flash and app == request.application:\n        msg = T(\'ATTENTION: you cannot edit the running application!\')\n        response.flash = msg\n\n    # If we have only pyc files it means that\n    # we cannot design\n    if os.path.exists(apath(\'%s/compiled\' % app, r=request)):\n        session.flash = \\\n            T(\'application is compiled and cannot be designed\')\n        redirect(URL(\'site\'))\n\n    # Get all models\n    models = listdir(apath(\'%s/models/\' % app, r=request), \'.*\\.py$\')\n    models = [x.replace(\'\\\\\', \'/\') for x in models]\n    defines = {}\n    for m in models:\n        data = safe_read(apath(\'%s/models/%s\' % (app, m), r=request))\n        defines[m] = regex_tables.findall(data)\n        defines[m].sort()\n\n    # Get all controllers\n    controllers = sorted(\n        listdir(apath(\'%s/controllers/\' % app, r=request), \'.*\\.py$\'))\n    controllers = [x.replace(\'\\\\\', \'/\') for x in controllers]\n    functions = {}\n    for c in controllers:\n        data = safe_read(apath(\'%s/controllers/%s\' % (app, c), r=request))\n        items = regex_expose.findall(data)\n        functions[c] = items\n\n    # Get all views\n    views = sorted(\n        listdir(apath(\'%s/views/\' % app, r=request), \'[\\w/\\-]+\\.\\w+$\'))\n    views = [x.replace(\'\\\\\', \'/\') for x in views]\n    extend = {}\n    include = {}\n    for c in views:\n        data = safe_read(apath(\'%s/views/%s\' % (app, c), r=request))\n        items = regex_extend.findall(data)\n        if items:\n            extend[c] = items[0][1]\n\n        items = regex_include.findall(data)\n        include[c] = [i[1] for i in items]\n\n    # Get all modules\n    modules = listdir(apath(\'%s/modules/\' % app, r=request), \'.*\\.py$\')\n    modules = modules = [x.replace(\'\\\\\', \'/\') for x in modules]\n    modules.sort()\n\n    # Get all private files\n    privates = listdir(apath(\'%s/private/\' % app, r=request), \'[^\\.#].*\')\n    privates = [x.replace(\'\\\\\', \'/\') for x in privates]\n    privates.sort()\n\n    # Get all static files\n    statics = listdir(apath(\'%s/static/\' % app, r=request), \'[^\\.#].*\')\n    statics = [x.replace(\'\\\\\', \'/\') for x in statics]\n    statics.sort()\n\n    # Get all languages\n    languages = sorted([lang + \'.py\' for lang, info in\n                        T.get_possible_languages_info().iteritems()\n                        if info[2] != 0])  # info[2] is langfile_mtime:\n                                    # get only existed files\n\n    #Get crontab\n    crontab = apath(\'%s/cron/crontab\' % app, r=request)\n    if not os.path.exists(crontab):\n        safe_write(crontab, \'#crontab\')\n\n    def filter_plugins(items):\n        regex = re.compile(\'^plugin_\' + plugin + \'(/.*|\\..*)?$\')\n        return [item for item in items if item and regex.match(item)]\n\n    return dict(app=app,\n                models=filter_plugins(models),\n                defines=defines,\n                controllers=filter_plugins(controllers),\n                functions=functions,\n                views=filter_plugins(views),\n                modules=filter_plugins(modules),\n                extend=extend,\n                include=include,\n                privates=filter_plugins(privates),\n                statics=filter_plugins(statics),\n                languages=languages,\n                crontab=crontab)\n\n\ndef create_file():\n    """ Create files handler """\n    if request.vars and not request.vars.token == session.token:\n        redirect(URL(\'logout\'))\n    try:\n        anchor = \'#\' + request.vars.id if request.vars.id else \'\'\n        if request.vars.app:\n            app = get_app(request.vars.app)\n            path = abspath(request.vars.location)\n        else:\n            app = get_app(name=request.vars.location.split(\'/\')[0])\n            path = apath(request.vars.location, r=request)\n        filename = re.sub(\'[^\\w./-]+\', \'_\', request.vars.filename)\n        if path[-7:] == \'/rules/\':\n            # Handle plural rules files\n            if len(filename) == 0:\n                raise SyntaxError\n            if not filename[-3:] == \'.py\':\n                filename += \'.py\'\n            lang = re.match(\'^plural_rules-(.*)\\.py$\', filename).group(1)\n            langinfo = read_possible_languages(apath(app, r=request))[lang]\n            text = dedent("""\n                   #!/usr/bin/env python\n                   # -*- coding: utf8 -*-\n                   # Plural-Forms for %(lang)s (%(langname)s)\n\n                   nplurals=2  # for example, English language has 2 forms:\n                               # 1 singular and 1 plural\n\n                   # Determine plural_id for number *n* as sequence of positive\n                   # integers: 0,1,...\n                   # NOTE! For singular form ALWAYS return plural_id = 0\n                   get_plural_id = lambda n: int(n != 1)\n\n                   # Construct and return plural form of *word* using\n                   # *plural_id* (which ALWAYS>0). This function will be executed\n                   # for words (or phrases) not found in plural_dict dictionary.\n                   # By default this function simply returns word in singular:\n                   construct_plural_form = lambda word, plural_id: word\n                   """)[1:] % dict(lang=langinfo[0], langname=langinfo[1])\n\n        elif path[-11:] == \'/languages/\':\n            # Handle language files\n            if len(filename) == 0:\n                raise SyntaxError\n            if not filename[-3:] == \'.py\':\n                filename += \'.py\'\n            path = os.path.join(apath(app, r=request), \'languages\', filename)\n            if not os.path.exists(path):\n                safe_write(path, \'\')\n            # create language xx[-yy].py file:\n            findT(apath(app, r=request), filename[:-3])\n            session.flash = T(\'language file "%(filename)s" created/updated\',\n                              dict(filename=filename))\n            redirect(request.vars.sender + anchor)\n\n        elif path[-8:] == \'/models/\':\n            # Handle python models\n            if not filename[-3:] == \'.py\':\n                filename += \'.py\'\n\n            if len(filename) == 3:\n                raise SyntaxError\n\n            text = \'# coding: utf8\\n\'\n\n        elif path[-13:] == \'/controllers/\':\n            # Handle python controllers\n            if not filename[-3:] == \'.py\':\n                filename += \'.py\'\n\n            if len(filename) == 3:\n                raise SyntaxError\n\n            text = \'# coding: utf8\\n# %s\\ndef index(): return dict(message="hello from %s")\'\n            text = text % (T(\'try something like\'), filename)\n\n        elif path[-7:] == \'/views/\':\n            if request.vars.plugin and not filename.startswith(\'plugin_%s/\' % request.vars.plugin):\n                filename = \'plugin_%s/%s\' % (request.vars.plugin, filename)\n            # Handle template (html) views\n            if filename.find(\'.\') < 0:\n                filename += \'.html\'\n            extension = filename.split(\'.\')[-1].lower()\n\n            if len(filename) == 5:\n                raise SyntaxError\n\n            msg = T(\n                \'This is the %(filename)s template\', dict(filename=filename))\n            if extension == \'html\':\n                text = dedent("""\n                   {{extend \'layout.html\'}}\n                   <h1>%s</h1>\n                   {{=BEAUTIFY(response._vars)}}""" % msg)[1:]\n            else:\n                generic = os.path.join(path, \'generic.\' + extension)\n                if os.path.exists(generic):\n                    text = read_file(generic)\n                else:\n                    text = \'\'\n\n        elif path[-9:] == \'/modules/\':\n            if request.vars.plugin and not filename.startswith(\'plugin_%s/\' % request.vars.plugin):\n                filename = \'plugin_%s/%s\' % (request.vars.plugin, filename)\n            # Handle python module files\n            if not filename[-3:] == \'.py\':\n                filename += \'.py\'\n\n            if len(filename) == 3:\n                raise SyntaxError\n\n            text = dedent("""\n                   #!/usr/bin/env python\n                   # coding: utf8\n                   from gluon import *\\n""")[1:]\n\n        elif (path[-8:] == \'/static/\') or (path[-9:] == \'/private/\'):\n            if request.vars.plugin and not filename.startswith(\'plugin_%s/\' % request.vars.plugin):\n                filename = \'plugin_%s/%s\' % (request.vars.plugin, filename)\n            text = \'\'\n\n        else:\n            redirect(request.vars.sender + anchor)\n\n        full_filename = os.path.join(path, filename)\n        dirpath = os.path.dirname(full_filename)\n\n        if not os.path.exists(dirpath):\n            os.makedirs(dirpath)\n\n        if os.path.exists(full_filename):\n            raise SyntaxError\n\n        safe_write(full_filename, text)\n        log_progress(app, \'CREATE\', filename)\n        session.flash = T(\'file "%(filename)s" created\',\n                          dict(filename=full_filename[len(path):]))\n        vars = {}\n        if request.vars.id:\n            vars[\'id\'] = request.vars.id\n        if request.vars.app:\n            vars[\'app\'] = request.vars.app\n        redirect(URL(\'edit\',\n                 args=[os.path.join(request.vars.location, filename)], vars=vars))\n    except Exception, e:\n        if not isinstance(e, HTTP):\n            session.flash = T(\'cannot create file\')\n\n    redirect(request.vars.sender + anchor)\n\n\ndef upload_file():\n    """ File uploading handler """\n    if request.vars and not request.vars.token == session.token:\n        redirect(URL(\'logout\'))\n    try:\n        filename = None\n        app = get_app(name=request.vars.location.split(\'/\')[0])\n        path = apath(request.vars.location, r=request)\n\n        if request.vars.filename:\n            filename = re.sub(\'[^\\w\\./]+\', \'_\', request.vars.filename)\n        else:\n            filename = os.path.split(request.vars.file.filename)[-1]\n\n        if path[-8:] == \'/models/\' and not filename[-3:] == \'.py\':\n            filename += \'.py\'\n\n        if path[-9:] == \'/modules/\' and not filename[-3:] == \'.py\':\n            filename += \'.py\'\n\n        if path[-13:] == \'/controllers/\' and not filename[-3:] == \'.py\':\n            filename += \'.py\'\n\n        if path[-7:] == \'/views/\' and not filename[-5:] == \'.html\':\n            filename += \'.html\'\n\n        if path[-11:] == \'/languages/\' and not filename[-3:] == \'.py\':\n            filename += \'.py\'\n\n        filename = os.path.join(path, filename)\n        dirpath = os.path.dirname(filename)\n\n        if not os.path.exists(dirpath):\n            os.makedirs(dirpath)\n\n        data = request.vars.file.file.read()\n        lineno = count_lines(data)\n        safe_write(filename, data, \'wb\')\n        log_progress(app, \'UPLOAD\', filename, lineno)\n        session.flash = T(\'file "%(filename)s" uploaded\',\n                          dict(filename=filename[len(path):]))\n    except Exception:\n        if filename:\n            d = dict(filename=filename[len(path):])\n        else:\n            d = dict(filename=\'unkown\')\n        session.flash = T(\'cannot upload file "%(filename)s"\', d)\n\n    redirect(request.vars.sender)\n\n\ndef errors():\n    """ Error handler """\n    import operator\n    import os\n    import pickle\n    import hashlib\n\n    app = get_app()\n\n    method = request.args(1) or \'new\'\n    db_ready = {}\n    db_ready[\'status\'] = get_ticket_storage(app)\n    db_ready[\'errmessage\'] = T(\n        "No ticket_storage.txt found under /private folder")\n    db_ready[\'errlink\'] = "http://web2py.com/books/default/chapter/29/13#Collecting-tickets"\n\n    if method == \'new\':\n        errors_path = apath(\'%s/errors\' % app, r=request)\n\n        delete_hashes = []\n        for item in request.vars:\n            if item[:7] == \'delete_\':\n                delete_hashes.append(item[7:])\n\n        hash2error = dict()\n\n        for fn in listdir(errors_path, \'^[a-fA-F0-9.\\-]+$\'):\n            fullpath = os.path.join(errors_path, fn)\n            if not os.path.isfile(fullpath):\n                continue\n            try:\n                fullpath_file = open(fullpath, \'r\')\n                try:\n                    error = pickle.load(fullpath_file)\n                finally:\n                    fullpath_file.close()\n            except IOError:\n                continue\n            except EOFError:\n                continue\n\n            hash = hashlib.md5(error[\'traceback\']).hexdigest()\n\n            if hash in delete_hashes:\n                os.unlink(fullpath)\n            else:\n                try:\n                    hash2error[hash][\'count\'] += 1\n                except KeyError:\n                    error_lines = error[\'traceback\'].split("\\n")\n                    last_line = error_lines[-2]\n                    error_causer = os.path.split(error[\'layer\'])[1]\n                    hash2error[hash] = dict(count=1, pickel=error,\n                                            causer=error_causer,\n                                            last_line=last_line,\n                                            hash=hash, ticket=fn)\n\n        decorated = [(x[\'count\'], x) for x in hash2error.values()]\n        decorated.sort(key=operator.itemgetter(0), reverse=True)\n\n        return dict(errors=[x[1] for x in decorated], app=app, method=method, db_ready=db_ready)\n\n    elif method == \'dbnew\':\n        errors_path = apath(\'%s/errors\' % app, r=request)\n        tk_db, tk_table = get_ticket_storage(app)\n\n        delete_hashes = []\n        for item in request.vars:\n            if item[:7] == \'delete_\':\n                delete_hashes.append(item[7:])\n\n        hash2error = dict()\n\n        for fn in tk_db(tk_table.id > 0).select():\n            try:\n                error = pickle.loads(fn.ticket_data)\n            except AttributeError:\n                tk_db(tk_table.id == fn.id).delete()\n                tk_db.commit()\n\n            hash = hashlib.md5(error[\'traceback\']).hexdigest()\n\n            if hash in delete_hashes:\n                tk_db(tk_table.id == fn.id).delete()\n                tk_db.commit()\n            else:\n                try:\n                    hash2error[\'hash\'][\'count\'] += 1\n                except KeyError:\n                    error_lines = error[\'traceback\'].split("\\n")\n                    last_line = error_lines[-2]\n                    error_causer = os.path.split(error[\'layer\'])[1]\n                    hash2error[hash] = dict(count=1, pickel=error,\n                                            causer=error_causer,\n                                            last_line=last_line,\n                                            hash=hash, ticket=fn.ticket_id)\n\n        decorated = [(x[\'count\'], x) for x in hash2error.values()]\n\n        decorated.sort(key=operator.itemgetter(0), reverse=True)\n\n        return dict(errors=[x[1] for x in decorated], app=app, method=method)\n\n    elif method == \'dbold\':\n        tk_db, tk_table = get_ticket_storage(app)\n        for item in request.vars:\n            if item[:7] == \'delete_\':\n                tk_db(tk_table.ticket_id == item[7:]).delete()\n                tk_db.commit()\n        tickets_ = tk_db(tk_table.id > 0).select(tk_table.ticket_id, tk_table.created_datetime, orderby=~tk_table.created_datetime)\n        tickets = [row.ticket_id for row in tickets_]\n        times = dict(\n            [(row.ticket_id, row.created_datetime) for row in tickets_])\n\n        return dict(app=app, tickets=tickets, method=method, times=times)\n\n    else:\n        for item in request.vars:\n            # delete_all} rows doesn\'t contain any ticket\n            # Remove anything else as requested\n            if item[:7] == \'delete_\' and (not item == "delete_all}"):\n                os.unlink(apath(\'%s/errors/%s\' % (app, item[7:]), r=request))\n        func = lambda p: os.stat(apath(\'%s/errors/%s\' %\n                                       (app, p), r=request)).st_mtime\n        tickets = sorted(\n            listdir(apath(\'%s/errors/\' % app, r=request), \'^\\w.*\'),\n            key=func,\n            reverse=True)\n\n        return dict(app=app, tickets=tickets, method=method, db_ready=db_ready)\n\n\ndef get_ticket_storage(app):\n    private_folder = apath(\'%s/private\' % app, r=request)\n    ticket_file = os.path.join(private_folder, \'ticket_storage.txt\')\n    if os.path.exists(ticket_file):\n        db_string = open(ticket_file).read()\n        db_string = db_string.strip().replace(\'\\r\', \'\').replace(\'\\n\', \'\')\n    else:\n        return False\n    tickets_table = \'web2py_ticket\'\n    tablename = tickets_table + \'_\' + app\n    db_path = apath(\'%s/databases\' % app, r=request)\n    ticketsdb = DAL(db_string, folder=db_path, auto_import=True)\n    if not ticketsdb.get(tablename):\n        table = ticketsdb.define_table(\n            tablename,\n            Field(\'ticket_id\', length=100),\n            Field(\'ticket_data\', \'text\'),\n            Field(\'created_datetime\', \'datetime\'),\n        )\n    return ticketsdb, ticketsdb.get(tablename)\n\n\ndef make_link(path):\n    """ Create a link from a path """\n    tryFile = path.replace(\'\\\\\', \'/\')\n\n    if os.path.isabs(tryFile) and os.path.isfile(tryFile):\n        (folder, filename) = os.path.split(tryFile)\n        (base, ext) = os.path.splitext(filename)\n        app = get_app()\n\n        editable = {\'controllers\': \'.py\', \'models\': \'.py\', \'views\': \'.html\'}\n        for key in editable.keys():\n            check_extension = folder.endswith("%s/%s" % (app, key))\n            if ext.lower() == editable[key] and check_extension:\n                return A(\'"\' + tryFile + \'"\',\n                         _href=URL(r=request,\n                         f=\'edit/%s/%s/%s\' % (app, key, filename))).xml()\n    return \'\'\n\n\ndef make_links(traceback):\n    """ Make links using the given traceback """\n\n    lwords = traceback.split(\'"\')\n\n    # Making the short circuit compatible with <= python2.4\n    result = (len(lwords) != 0) and lwords[0] or \'\'\n\n    i = 1\n\n    while i < len(lwords):\n        link = make_link(lwords[i])\n\n        if link == \'\':\n            result += \'"\' + lwords[i]\n        else:\n            result += link\n\n            if i + 1 < len(lwords):\n                result += lwords[i + 1]\n                i = i + 1\n\n        i = i + 1\n\n    return result\n\n\nclass TRACEBACK(object):\n    """ Generate the traceback """\n\n    def __init__(self, text):\n        """ TRACEBACK constructor """\n\n        self.s = make_links(CODE(text).xml())\n\n    def xml(self):\n        """ Returns the xml """\n\n        return self.s\n\n\ndef ticket():\n    """ Ticket handler """\n\n    if len(request.args) != 2:\n        session.flash = T(\'invalid ticket\')\n        redirect(URL(\'site\'))\n\n    app = get_app()\n    myversion = request.env.web2py_version\n    ticket = request.args[1]\n    e = RestrictedError()\n    e.load(request, app, ticket)\n\n    return dict(app=app,\n                ticket=ticket,\n                output=e.output,\n                traceback=(e.traceback and TRACEBACK(e.traceback)),\n                snapshot=e.snapshot,\n                code=e.code,\n                layer=e.layer,\n                myversion=myversion)\n\n\ndef ticketdb():\n    """ Ticket handler """\n\n    if len(request.args) != 2:\n        session.flash = T(\'invalid ticket\')\n        redirect(URL(\'site\'))\n\n    app = get_app()\n    myversion = request.env.web2py_version\n    ticket = request.args[1]\n    e = RestrictedError()\n    request.tickets_db = get_ticket_storage(app)[0]\n    e.load(request, app, ticket)\n    response.view = \'default/ticket.html\'\n    return dict(app=app,\n                ticket=ticket,\n                output=e.output,\n                traceback=(e.traceback and TRACEBACK(e.traceback)),\n                snapshot=e.snapshot,\n                code=e.code,\n                layer=e.layer,\n                myversion=myversion)\n\n\ndef error():\n    """ Generate a ticket (for testing) """\n    raise RuntimeError(\'admin ticket generator at your service\')\n\n\ndef update_languages():\n    """ Update available languages """\n\n    app = get_app()\n    update_all_languages(apath(app, r=request))\n    session.flash = T(\'Language files (static strings) updated\')\n    redirect(URL(\'design\', args=app, anchor=\'languages\'))\n\n\ndef twitter():\n    session.forget()\n    session._unlock(response)\n    import gluon.tools\n    import gluon.contrib.simplejson as sj\n    try:\n        if TWITTER_HASH:\n            page = urllib.urlopen("http://search.twitter.com/search.json?q=%%40%s" % TWITTER_HASH).read()\n            data = sj.loads(page, encoding="utf-8")[\'results\']\n            d = dict()\n            for e in data:\n                d[e["id"]] = e\n            r = reversed(sorted(d))\n            return dict(tweets=[d[k] for k in r])\n        else:\n            return \'disabled\'\n    except Exception, e:\n        return DIV(T(\'Unable to download because:\'), BR(), str(e))\n\n\ndef user():\n    if MULTI_USER_MODE:\n        if not db(db.auth_user).count():\n            auth.settings.registration_requires_approval = False\n        return dict(form=auth())\n    else:\n        return dict(form=T("Disabled"))\n\n\ndef reload_routes():\n    """ Reload routes.py """\n    import gluon.rewrite\n    gluon.rewrite.load()\n    redirect(URL(\'site\'))\n\n\ndef manage_students():\n    if not (MULTI_USER_MODE and is_manager()):\n        session.flash = T(\'Not Authorized\')\n        redirect(URL(\'site\'))\n    db.auth_user.registration_key.writable = True\n    grid = SQLFORM.grid(db.auth_user)\n    return locals()\n\n\ndef bulk_register():\n    if not (MULTI_USER_MODE and is_manager()):\n        session.flash = T(\'Not Authorized\')\n        redirect(URL(\'site\'))\n    form = SQLFORM.factory(Field(\'emails\', \'text\'))\n    if form.process().accepted:\n        emails = [x.strip() for x in form.vars.emails.split(\'\\n\') if x.strip()]\n        n = 0\n        for email in emails:\n            if not db.auth_user(email=email):\n                n += db.auth_user.insert(email=email) and 1 or 0\n        session.flash = T(\'%s students registered\', n)\n        redirect(URL(\'site\'))\n    return locals()\n\n### Begin experimental stuff need fixes:\n# 1) should run in its own process - cannot os.chdir\n# 2) should not prompt user at console\n# 3) should give option to force commit and not reuqire manual merge\n\n\ndef git_pull():\n    """ Git Pull handler """\n    app = get_app()\n    if not have_git:\n        session.flash = GIT_MISSING\n        redirect(URL(\'site\'))\n    dialog = FORM.confirm(T(\'Pull\'),\n                          {T(\'Cancel\'): URL(\'site\')})\n    if dialog.accepted:\n        try:\n            repo = Repo(os.path.join(apath(r=request), app))\n            origin = repo.remotes.origin\n            origin.fetch()\n            origin.pull()\n            session.flash = T("Application updated via git pull")\n            redirect(URL(\'site\'))\n        except CheckoutError, message:\n            session.flash = T("Pull failed, certain files could not be checked out. Check logs for details.")\n            redirect(URL(\'site\'))\n        except UnmergedEntriesError:\n            session.flash = T("Pull is not possible because you have unmerged files. Fix them up in the work tree, and then try again.")\n            redirect(URL(\'site\'))\n        except AssertionError:\n            session.flash = T("Pull is not possible because you have unmerged files. Fix them up in the work tree, and then try again.")\n            redirect(URL(\'site\'))\n        except GitCommandError, status:\n            session.flash = T(\n                "Pull failed, git exited abnormally. See logs for details.")\n            redirect(URL(\'site\'))\n        except Exception, e:\n            session.flash = T(\n                "Pull failed, git exited abnormally. See logs for details.")\n            redirect(URL(\'site\'))\n    elif \'cancel\' in request.vars:\n        redirect(URL(\'site\'))\n    return dict(app=app, dialog=dialog)\n\n\ndef git_push():\n    """ Git Push handler """\n    app = get_app()\n    if not have_git:\n        session.flash = GIT_MISSING\n        redirect(URL(\'site\'))\n    form = SQLFORM.factory(Field(\'changelog\', requires=IS_NOT_EMPTY()))\n    form.element(\'input[type=submit]\')[\'_value\'] = T(\'Push\')\n    form.add_button(T(\'Cancel\'), URL(\'site\'))\n    form.process()\n    if form.accepted:\n        try:\n            repo = Repo(os.path.join(apath(r=request), app))\n            index = repo.index\n            index.add([apath(r=request) + app + \'/*\'])\n            new_commit = index.commit(form.vars.changelog)\n            origin = repo.remotes.origin\n            origin.push()\n            session.flash = T(\n                "Git repo updated with latest application changes.")\n            redirect(URL(\'site\'))\n        except UnmergedEntriesError:\n            session.flash = T("Push failed, there are unmerged entries in the cache. Resolve merge issues manually and try again.")\n            redirect(URL(\'site\'))\n        except Exception, e:\n            session.flash = T(\n                "Push failed, git exited abnormally. See logs for details.")\n            redirect(URL(\'site\'))\n    return dict(app=app, form=form)\n\nresponse._vars=response._caller(design)\n'
p7
sS'snapshot'
p8
(dp9
S'exception'
p10
(dp11
S'__getslice__'
p12
S"<method-wrapper '__getslice__' of exceptions.OSError object>"
p13
sS'__str__'
p14
S"<method-wrapper '__str__' of exceptions.OSError object>"
p15
sS'__reduce__'
p16
S'<built-in method __reduce__ of exceptions.OSError object>'
p17
sS'__dict__'
p18
S'{}'
p19
sS'__sizeof__'
p20
S'<built-in method __sizeof__ of exceptions.OSError object>'
p21
sS'__init__'
p22
S"<method-wrapper '__init__' of exceptions.OSError object>"
p23
sS'__setattr__'
p24
S"<method-wrapper '__setattr__' of exceptions.OSError object>"
p25
sS'__reduce_ex__'
p26
S'<built-in method __reduce_ex__ of exceptions.OSError object>'
p27
sS'__new__'
p28
S'<built-in method __new__ of type object>'
p29
sS'errno'
p30
S'2'
sS'__format__'
p31
S'<built-in method __format__ of exceptions.OSError object>'
p32
sS'__class__'
p33
S"<type 'exceptions.OSError'>"
p34
sS'filename'
p35
S"'/opt/smb4manager/applications/dashboard/languages/languages'"
p36
sS'__doc__'
p37
S"'OS system call failed.'"
p38
sS'__getitem__'
p39
S"<method-wrapper '__getitem__' of exceptions.OSError object>"
p40
sS'__setstate__'
p41
S'<built-in method __setstate__ of exceptions.OSError object>'
p42
sS'__getattribute__'
p43
S"<method-wrapper '__getattribute__' of exceptions.OSError object>"
p44
sS'args'
p45
S"(2, 'No such file or directory')"
p46
sS'__subclasshook__'
p47
S'<built-in method __subclasshook__ of type object>'
p48
sS'__unicode__'
p49
S'<built-in method __unicode__ of exceptions.OSError object>'
p50
sS'strerror'
p51
S"'No such file or directory'"
p52
sS'__delattr__'
p53
S"<method-wrapper '__delattr__' of exceptions.OSError object>"
p54
sS'__repr__'
p55
S"<method-wrapper '__repr__' of exceptions.OSError object>"
p56
sS'__hash__'
p57
S"<method-wrapper '__hash__' of exceptions.OSError object>"
p58
ssS'evalue'
p59
S"[Errno 2] No such file or directory: '/opt/smb4manager/applications/dashboard/languages/languages'"
p60
sS'request'
p61
ccopy_reg
_reconstructor
p62
(cgluon.html
BEAUTIFY
p63
c__builtin__
object
p64
NtRp65
(dp66
S'attributes'
p67
(dp68
sS'components'
p69
(lp70
g62
(cgluon.html
TABLE
p71
g64
NtRp72
(dp73
g67
(dp74
S'level'
p75
I5
ssS'parent'
p76
Nsg69
(lp77
g62
(cgluon.html
TR
p78
g64
NtRp79
(dp80
g67
(dp81
sg76
g72
sg69
(lp82
g62
(cgluon.html
TD
p83
g64
NtRp84
(dp85
g67
(dp86
S'_style'
p87
S'font-weight:bold;vertical-align:top'
p88
ssg76
g79
sg69
(lp89
S'ajax'
p90
asbag62
(g83
g64
NtRp91
(dp92
g67
(dp93
S'_valign'
p94
S'top'
p95
ssg76
g79
sg69
(lp96
S':'
asbag62
(g83
g64
NtRp97
(dp98
g67
(dp99
sg76
g79
sg69
(lp100
g62
(g63
g64
NtRp101
(dp102
g67
(dp103
g75
I5
ssg76
g97
sg69
(lp104
S'False'
p105
asbasbasbag62
(g78
g64
NtRp106
(dp107
g67
(dp108
sg76
g72
sg69
(lp109
g62
(g83
g64
NtRp110
(dp111
g67
(dp112
g87
g88
ssg76
g106
sg69
(lp113
S'application'
p114
asbag62
(g83
g64
NtRp115
(dp116
g67
(dp117
g94
g95
ssg76
g106
sg69
(lp118
S':'
asbag62
(g83
g64
NtRp119
(dp120
g67
(dp121
sg76
g106
sg69
(lp122
g62
(g63
g64
NtRp123
(dp124
g67
(dp125
g75
I5
ssg76
g119
sg69
(lp126
S'admin'
p127
asbasbasbag62
(g78
g64
NtRp128
(dp129
g67
(dp130
sg76
g72
sg69
(lp131
g62
(g83
g64
NtRp132
(dp133
g67
(dp134
g87
g88
ssg76
g128
sg69
(lp135
g45
asbag62
(g83
g64
NtRp136
(dp137
g67
(dp138
g94
g95
ssg76
g128
sg69
(lp139
S':'
asbag62
(g83
g64
NtRp140
(dp141
g67
(dp142
sg76
g128
sg69
(lp143
g62
(g63
g64
NtRp144
(dp145
g67
(dp146
g75
I5
ssg76
g140
sg69
(lp147
g62
(g71
g64
NtRp148
(dp149
g67
(dp150
g75
I4
ssg76
Nsg69
(lp151
g62
(g78
g64
NtRp152
(dp153
g67
(dp154
sg76
g148
sg69
(lp155
g62
(g83
g64
NtRp156
(dp157
g67
(dp158
sg76
g152
sg69
(lp159
g62
(g63
g64
NtRp160
(dp161
g67
(dp162
g75
I4
ssg76
g156
sg69
(lp163
S'dashboard'
p164
asbasbasbasbasbasbasbag62
(g78
g64
NtRp165
(dp166
g67
(dp167
sg76
g72
sg69
(lp168
g62
(g83
g64
NtRp169
(dp170
g67
(dp171
g87
g88
ssg76
g165
sg69
(lp172
S'body'
p173
asbag62
(g83
g64
NtRp174
(dp175
g67
(dp176
g94
g95
ssg76
g165
sg69
(lp177
S':'
asbag62
(g83
g64
NtRp178
(dp179
g67
(dp180
sg76
g165
sg69
(lp181
g62
(g63
g64
NtRp182
(dp183
g67
(dp184
g75
I5
ssg76
g178
sg69
(lp185
S'<cStringIO.StringO object at 0x8eefb80>'
p186
asbasbasbag62
(g78
g64
NtRp187
(dp188
g67
(dp189
sg76
g72
sg69
(lp190
g62
(g83
g64
NtRp191
(dp192
g67
(dp193
g87
g88
ssg76
g187
sg69
(lp194
S'cid'
p195
asbag62
(g83
g64
NtRp196
(dp197
g67
(dp198
g94
g95
ssg76
g187
sg69
(lp199
S':'
asbag62
(g83
g64
NtRp200
(dp201
g67
(dp202
sg76
g187
sg69
(lp203
g62
(g63
g64
NtRp204
(dp205
g67
(dp206
g75
I5
ssg76
g200
sg69
(lp207
S'None'
p208
asbasbasbag62
(g78
g64
NtRp209
(dp210
g67
(dp211
sg76
g72
sg69
(lp212
g62
(g83
g64
NtRp213
(dp214
g67
(dp215
g87
g88
ssg76
g209
sg69
(lp216
S'client'
p217
asbag62
(g83
g64
NtRp218
(dp219
g67
(dp220
g94
g95
ssg76
g209
sg69
(lp221
S':'
asbag62
(g83
g64
NtRp222
(dp223
g67
(dp224
sg76
g209
sg69
(lp225
g62
(g63
g64
NtRp226
(dp227
g67
(dp228
g75
I5
ssg76
g222
sg69
(lp229
S'192.168.20.23'
p230
asbasbasbag62
(g78
g64
NtRp231
(dp232
g67
(dp233
sg76
g72
sg69
(lp234
g62
(g83
g64
NtRp235
(dp236
g67
(dp237
g87
g88
ssg76
g231
sg69
(lp238
S'controller'
p239
asbag62
(g83
g64
NtRp240
(dp241
g67
(dp242
g94
g95
ssg76
g231
sg69
(lp243
S':'
asbag62
(g83
g64
NtRp244
(dp245
g67
(dp246
sg76
g231
sg69
(lp247
g62
(g63
g64
NtRp248
(dp249
g67
(dp250
g75
I5
ssg76
g244
sg69
(lp251
S'default'
p252
asbasbasbag62
(g78
g64
NtRp253
(dp254
g67
(dp255
sg76
g72
sg69
(lp256
g62
(g83
g64
NtRp257
(dp258
g67
(dp259
g87
g88
ssg76
g253
sg69
(lp260
S'cookies'
p261
asbag62
(g83
g64
NtRp262
(dp263
g67
(dp264
g94
g95
ssg76
g253
sg69
(lp265
S':'
asbag62
(g83
g64
NtRp266
(dp267
g67
(dp268
sg76
g253
sg69
(lp269
g62
(g63
g64
NtRp270
(dp271
g67
(dp272
g75
I5
ssg76
g266
sg69
(lp273
g62
(g71
g64
NtRp274
(dp275
g67
(dp276
g75
I4
ssg76
Nsg69
(lp277
g62
(g78
g64
NtRp278
(dp279
g67
(dp280
sg76
g274
sg69
(lp281
g62
(g83
g64
NtRp282
(dp283
g67
(dp284
g87
g88
ssg76
g278
sg69
(lp285
S'adminLanguage'
p286
asbag62
(g83
g64
NtRp287
(dp288
g67
(dp289
g94
g95
ssg76
g278
sg69
(lp290
S':'
asbag62
(g83
g64
NtRp291
(dp292
g67
(dp293
sg76
g278
sg69
(lp294
g62
(g63
g64
NtRp295
(dp296
g67
(dp297
g75
I4
ssg76
g291
sg69
(lp298
S'en-us'
p299
ag62
(g71
g64
NtRp300
(dp301
g67
(dp302
g75
I3
ssg76
Nsg69
(lp303
g62
(g78
g64
NtRp304
(dp305
g67
(dp306
sg76
g300
sg69
(lp307
g62
(g83
g64
NtRp308
(dp309
g67
(dp310
g87
g88
ssg76
g304
sg69
(lp311
S'comment'
p312
asbag62
(g83
g64
NtRp313
(dp314
g67
(dp315
g94
g95
ssg76
g304
sg69
(lp316
S':'
asbag62
(g83
g64
NtRp317
(dp318
g67
(dp319
sg76
g304
sg69
(lp320
g62
(g63
g64
NtRp321
(dp322
g67
(dp323
g75
I3
ssg76
g317
sg69
(lp324
S''
asbasbasbag62
(g78
g64
NtRp325
(dp326
g67
(dp327
sg76
g300
sg69
(lp328
g62
(g83
g64
NtRp329
(dp330
g67
(dp331
g87
g88
ssg76
g325
sg69
(lp332
S'domain'
p333
asbag62
(g83
g64
NtRp334
(dp335
g67
(dp336
g94
g95
ssg76
g325
sg69
(lp337
S':'
asbag62
(g83
g64
NtRp338
(dp339
g67
(dp340
sg76
g325
sg69
(lp341
g62
(g63
g64
NtRp342
(dp343
g67
(dp344
g75
I3
ssg76
g338
sg69
(lp345
S''
asbasbasbag62
(g78
g64
NtRp346
(dp347
g67
(dp348
sg76
g300
sg69
(lp349
g62
(g83
g64
NtRp350
(dp351
g67
(dp352
g87
g88
ssg76
g346
sg69
(lp353
S'expires'
p354
asbag62
(g83
g64
NtRp355
(dp356
g67
(dp357
g94
g95
ssg76
g346
sg69
(lp358
S':'
asbag62
(g83
g64
NtRp359
(dp360
g67
(dp361
sg76
g346
sg69
(lp362
g62
(g63
g64
NtRp363
(dp364
g67
(dp365
g75
I3
ssg76
g359
sg69
(lp366
S''
asbasbasbag62
(g78
g64
NtRp367
(dp368
g67
(dp369
sg76
g300
sg69
(lp370
g62
(g83
g64
NtRp371
(dp372
g67
(dp373
g87
g88
ssg76
g367
sg69
(lp374
S'httponly'
p375
asbag62
(g83
g64
NtRp376
(dp377
g67
(dp378
g94
g95
ssg76
g367
sg69
(lp379
S':'
asbag62
(g83
g64
NtRp380
(dp381
g67
(dp382
sg76
g367
sg69
(lp383
g62
(g63
g64
NtRp384
(dp385
g67
(dp386
g75
I3
ssg76
g380
sg69
(lp387
S''
asbasbasbag62
(g78
g64
NtRp388
(dp389
g67
(dp390
sg76
g300
sg69
(lp391
g62
(g83
g64
NtRp392
(dp393
g67
(dp394
g87
g88
ssg76
g388
sg69
(lp395
S'max-age'
p396
asbag62
(g83
g64
NtRp397
(dp398
g67
(dp399
g94
g95
ssg76
g388
sg69
(lp400
S':'
asbag62
(g83
g64
NtRp401
(dp402
g67
(dp403
sg76
g388
sg69
(lp404
g62
(g63
g64
NtRp405
(dp406
g67
(dp407
g75
I3
ssg76
g401
sg69
(lp408
S''
asbasbasbag62
(g78
g64
NtRp409
(dp410
g67
(dp411
sg76
g300
sg69
(lp412
g62
(g83
g64
NtRp413
(dp414
g67
(dp415
g87
g88
ssg76
g409
sg69
(lp416
S'path'
p417
asbag62
(g83
g64
NtRp418
(dp419
g67
(dp420
g94
g95
ssg76
g409
sg69
(lp421
S':'
asbag62
(g83
g64
NtRp422
(dp423
g67
(dp424
sg76
g409
sg69
(lp425
g62
(g63
g64
NtRp426
(dp427
g67
(dp428
g75
I3
ssg76
g422
sg69
(lp429
S''
asbasbasbag62
(g78
g64
NtRp430
(dp431
g67
(dp432
sg76
g300
sg69
(lp433
g62
(g83
g64
NtRp434
(dp435
g67
(dp436
g87
g88
ssg76
g430
sg69
(lp437
S'secure'
p438
asbag62
(g83
g64
NtRp439
(dp440
g67
(dp441
g94
g95
ssg76
g430
sg69
(lp442
S':'
asbag62
(g83
g64
NtRp443
(dp444
g67
(dp445
sg76
g430
sg69
(lp446
g62
(g63
g64
NtRp447
(dp448
g67
(dp449
g75
I3
ssg76
g443
sg69
(lp450
S''
asbasbasbag62
(g78
g64
NtRp451
(dp452
g67
(dp453
sg76
g300
sg69
(lp454
g62
(g83
g64
NtRp455
(dp456
g67
(dp457
g87
g88
ssg76
g451
sg69
(lp458
S'version'
p459
asbag62
(g83
g64
NtRp460
(dp461
g67
(dp462
g94
g95
ssg76
g451
sg69
(lp463
S':'
asbag62
(g83
g64
NtRp464
(dp465
g67
(dp466
sg76
g451
sg69
(lp467
g62
(g63
g64
NtRp468
(dp469
g67
(dp470
g75
I3
ssg76
g464
sg69
(lp471
S''
asbasbasbasbasbasbasbag62
(g78
g64
NtRp472
(dp473
g67
(dp474
sg76
g274
sg69
(lp475
g62
(g83
g64
NtRp476
(dp477
g67
(dp478
g87
g88
ssg76
g472
sg69
(lp479
S'session_id_admin'
p480
asbag62
(g83
g64
NtRp481
(dp482
g67
(dp483
g94
g95
ssg76
g472
sg69
(lp484
S':'
asbag62
(g83
g64
NtRp485
(dp486
g67
(dp487
sg76
g472
sg69
(lp488
g62
(g63
g64
NtRp489
(dp490
g67
(dp491
g75
I4
ssg76
g485
sg69
(lp492
S'192.168.20.23-bb6d7022-37ea-42bf-aba2-3cf5b4b8fb51'
p493
ag62
(g71
g64
NtRp494
(dp495
g67
(dp496
g75
I3
ssg76
Nsg69
(lp497
g62
(g78
g64
NtRp498
(dp499
g67
(dp500
sg76
g494
sg69
(lp501
g62
(g83
g64
NtRp502
(dp503
g67
(dp504
g87
g88
ssg76
g498
sg69
(lp505
g312
asbag62
(g83
g64
NtRp506
(dp507
g67
(dp508
g94
g95
ssg76
g498
sg69
(lp509
S':'
asbag62
(g83
g64
NtRp510
(dp511
g67
(dp512
sg76
g498
sg69
(lp513
g62
(g63
g64
NtRp514
(dp515
g67
(dp516
g75
I3
ssg76
g510
sg69
(lp517
S''
asbasbasbag62
(g78
g64
NtRp518
(dp519
g67
(dp520
sg76
g494
sg69
(lp521
g62
(g83
g64
NtRp522
(dp523
g67
(dp524
g87
g88
ssg76
g518
sg69
(lp525
g333
asbag62
(g83
g64
NtRp526
(dp527
g67
(dp528
g94
g95
ssg76
g518
sg69
(lp529
S':'
asbag62
(g83
g64
NtRp530
(dp531
g67
(dp532
sg76
g518
sg69
(lp533
g62
(g63
g64
NtRp534
(dp535
g67
(dp536
g75
I3
ssg76
g530
sg69
(lp537
S''
asbasbasbag62
(g78
g64
NtRp538
(dp539
g67
(dp540
sg76
g494
sg69
(lp541
g62
(g83
g64
NtRp542
(dp543
g67
(dp544
g87
g88
ssg76
g538
sg69
(lp545
g354
asbag62
(g83
g64
NtRp546
(dp547
g67
(dp548
g94
g95
ssg76
g538
sg69
(lp549
S':'
asbag62
(g83
g64
NtRp550
(dp551
g67
(dp552
sg76
g538
sg69
(lp553
g62
(g63
g64
NtRp554
(dp555
g67
(dp556
g75
I3
ssg76
g550
sg69
(lp557
S''
asbasbasbag62
(g78
g64
NtRp558
(dp559
g67
(dp560
sg76
g494
sg69
(lp561
g62
(g83
g64
NtRp562
(dp563
g67
(dp564
g87
g88
ssg76
g558
sg69
(lp565
g375
asbag62
(g83
g64
NtRp566
(dp567
g67
(dp568
g94
g95
ssg76
g558
sg69
(lp569
S':'
asbag62
(g83
g64
NtRp570
(dp571
g67
(dp572
sg76
g558
sg69
(lp573
g62
(g63
g64
NtRp574
(dp575
g67
(dp576
g75
I3
ssg76
g570
sg69
(lp577
S''
asbasbasbag62
(g78
g64
NtRp578
(dp579
g67
(dp580
sg76
g494
sg69
(lp581
g62
(g83
g64
NtRp582
(dp583
g67
(dp584
g87
g88
ssg76
g578
sg69
(lp585
g396
asbag62
(g83
g64
NtRp586
(dp587
g67
(dp588
g94
g95
ssg76
g578
sg69
(lp589
S':'
asbag62
(g83
g64
NtRp590
(dp591
g67
(dp592
sg76
g578
sg69
(lp593
g62
(g63
g64
NtRp594
(dp595
g67
(dp596
g75
I3
ssg76
g590
sg69
(lp597
S''
asbasbasbag62
(g78
g64
NtRp598
(dp599
g67
(dp600
sg76
g494
sg69
(lp601
g62
(g83
g64
NtRp602
(dp603
g67
(dp604
g87
g88
ssg76
g598
sg69
(lp605
g417
asbag62
(g83
g64
NtRp606
(dp607
g67
(dp608
g94
g95
ssg76
g598
sg69
(lp609
S':'
asbag62
(g83
g64
NtRp610
(dp611
g67
(dp612
sg76
g598
sg69
(lp613
g62
(g63
g64
NtRp614
(dp615
g67
(dp616
g75
I3
ssg76
g610
sg69
(lp617
S''
asbasbasbag62
(g78
g64
NtRp618
(dp619
g67
(dp620
sg76
g494
sg69
(lp621
g62
(g83
g64
NtRp622
(dp623
g67
(dp624
g87
g88
ssg76
g618
sg69
(lp625
g438
asbag62
(g83
g64
NtRp626
(dp627
g67
(dp628
g94
g95
ssg76
g618
sg69
(lp629
S':'
asbag62
(g83
g64
NtRp630
(dp631
g67
(dp632
sg76
g618
sg69
(lp633
g62
(g63
g64
NtRp634
(dp635
g67
(dp636
g75
I3
ssg76
g630
sg69
(lp637
S''
asbasbasbag62
(g78
g64
NtRp638
(dp639
g67
(dp640
sg76
g494
sg69
(lp641
g62
(g83
g64
NtRp642
(dp643
g67
(dp644
g87
g88
ssg76
g638
sg69
(lp645
g459
asbag62
(g83
g64
NtRp646
(dp647
g67
(dp648
g94
g95
ssg76
g638
sg69
(lp649
S':'
asbag62
(g83
g64
NtRp650
(dp651
g67
(dp652
sg76
g638
sg69
(lp653
g62
(g63
g64
NtRp654
(dp655
g67
(dp656
g75
I3
ssg76
g650
sg69
(lp657
S''
asbasbasbasbasbasbasbag62
(g78
g64
NtRp658
(dp659
g67
(dp660
sg76
g274
sg69
(lp661
g62
(g83
g64
NtRp662
(dp663
g67
(dp664
g87
g88
ssg76
g658
sg69
(lp665
S'session_id_dashboard'
p666
asbag62
(g83
g64
NtRp667
(dp668
g67
(dp669
g94
g95
ssg76
g658
sg69
(lp670
S':'
asbag62
(g83
g64
NtRp671
(dp672
g67
(dp673
sg76
g658
sg69
(lp674
g62
(g63
g64
NtRp675
(dp676
g67
(dp677
g75
I4
ssg76
g671
sg69
(lp678
S'192.168.20.23-65f160e7-fe40-46eb-a955-5731b27c67c6'
p679
ag62
(g71
g64
NtRp680
(dp681
g67
(dp682
g75
I3
ssg76
Nsg69
(lp683
g62
(g78
g64
NtRp684
(dp685
g67
(dp686
sg76
g680
sg69
(lp687
g62
(g83
g64
NtRp688
(dp689
g67
(dp690
g87
g88
ssg76
g684
sg69
(lp691
g312
asbag62
(g83
g64
NtRp692
(dp693
g67
(dp694
g94
g95
ssg76
g684
sg69
(lp695
S':'
asbag62
(g83
g64
NtRp696
(dp697
g67
(dp698
sg76
g684
sg69
(lp699
g62
(g63
g64
NtRp700
(dp701
g67
(dp702
g75
I3
ssg76
g696
sg69
(lp703
S''
asbasbasbag62
(g78
g64
NtRp704
(dp705
g67
(dp706
sg76
g680
sg69
(lp707
g62
(g83
g64
NtRp708
(dp709
g67
(dp710
g87
g88
ssg76
g704
sg69
(lp711
g333
asbag62
(g83
g64
NtRp712
(dp713
g67
(dp714
g94
g95
ssg76
g704
sg69
(lp715
S':'
asbag62
(g83
g64
NtRp716
(dp717
g67
(dp718
sg76
g704
sg69
(lp719
g62
(g63
g64
NtRp720
(dp721
g67
(dp722
g75
I3
ssg76
g716
sg69
(lp723
S''
asbasbasbag62
(g78
g64
NtRp724
(dp725
g67
(dp726
sg76
g680
sg69
(lp727
g62
(g83
g64
NtRp728
(dp729
g67
(dp730
g87
g88
ssg76
g724
sg69
(lp731
g354
asbag62
(g83
g64
NtRp732
(dp733
g67
(dp734
g94
g95
ssg76
g724
sg69
(lp735
S':'
asbag62
(g83
g64
NtRp736
(dp737
g67
(dp738
sg76
g724
sg69
(lp739
g62
(g63
g64
NtRp740
(dp741
g67
(dp742
g75
I3
ssg76
g736
sg69
(lp743
S''
asbasbasbag62
(g78
g64
NtRp744
(dp745
g67
(dp746
sg76
g680
sg69
(lp747
g62
(g83
g64
NtRp748
(dp749
g67
(dp750
g87
g88
ssg76
g744
sg69
(lp751
g375
asbag62
(g83
g64
NtRp752
(dp753
g67
(dp754
g94
g95
ssg76
g744
sg69
(lp755
S':'
asbag62
(g83
g64
NtRp756
(dp757
g67
(dp758
sg76
g744
sg69
(lp759
g62
(g63
g64
NtRp760
(dp761
g67
(dp762
g75
I3
ssg76
g756
sg69
(lp763
S''
asbasbasbag62
(g78
g64
NtRp764
(dp765
g67
(dp766
sg76
g680
sg69
(lp767
g62
(g83
g64
NtRp768
(dp769
g67
(dp770
g87
g88
ssg76
g764
sg69
(lp771
g396
asbag62
(g83
g64
NtRp772
(dp773
g67
(dp774
g94
g95
ssg76
g764
sg69
(lp775
S':'
asbag62
(g83
g64
NtRp776
(dp777
g67
(dp778
sg76
g764
sg69
(lp779
g62
(g63
g64
NtRp780
(dp781
g67
(dp782
g75
I3
ssg76
g776
sg69
(lp783
S''
asbasbasbag62
(g78
g64
NtRp784
(dp785
g67
(dp786
sg76
g680
sg69
(lp787
g62
(g83
g64
NtRp788
(dp789
g67
(dp790
g87
g88
ssg76
g784
sg69
(lp791
g417
asbag62
(g83
g64
NtRp792
(dp793
g67
(dp794
g94
g95
ssg76
g784
sg69
(lp795
S':'
asbag62
(g83
g64
NtRp796
(dp797
g67
(dp798
sg76
g784
sg69
(lp799
g62
(g63
g64
NtRp800
(dp801
g67
(dp802
g75
I3
ssg76
g796
sg69
(lp803
S''
asbasbasbag62
(g78
g64
NtRp804
(dp805
g67
(dp806
sg76
g680
sg69
(lp807
g62
(g83
g64
NtRp808
(dp809
g67
(dp810
g87
g88
ssg76
g804
sg69
(lp811
g438
asbag62
(g83
g64
NtRp812
(dp813
g67
(dp814
g94
g95
ssg76
g804
sg69
(lp815
S':'
asbag62
(g83
g64
NtRp816
(dp817
g67
(dp818
sg76
g804
sg69
(lp819
g62
(g63
g64
NtRp820
(dp821
g67
(dp822
g75
I3
ssg76
g816
sg69
(lp823
S''
asbasbasbag62
(g78
g64
NtRp824
(dp825
g67
(dp826
sg76
g680
sg69
(lp827
g62
(g83
g64
NtRp828
(dp829
g67
(dp830
g87
g88
ssg76
g824
sg69
(lp831
g459
asbag62
(g83
g64
NtRp832
(dp833
g67
(dp834
g94
g95
ssg76
g824
sg69
(lp835
S':'
asbag62
(g83
g64
NtRp836
(dp837
g67
(dp838
sg76
g824
sg69
(lp839
g62
(g63
g64
NtRp840
(dp841
g67
(dp842
g75
I3
ssg76
g836
sg69
(lp843
S''
asbasbasbasbasbasbasbasbasbasbasbag62
(g78
g64
NtRp844
(dp845
g67
(dp846
sg76
g72
sg69
(lp847
g62
(g83
g64
NtRp848
(dp849
g67
(dp850
g87
g88
ssg76
g844
sg69
(lp851
S'env'
p852
asbag62
(g83
g64
NtRp853
(dp854
g67
(dp855
g94
g95
ssg76
g844
sg69
(lp856
S':'
asbag62
(g83
g64
NtRp857
(dp858
g67
(dp859
sg76
g844
sg69
(lp860
g62
(g63
g64
NtRp861
(dp862
g67
(dp863
g75
I5
ssg76
g857
sg69
(lp864
g62
(g71
g64
NtRp865
(dp866
g67
(dp867
g75
I4
ssg76
Nsg69
(lp868
g62
(g78
g64
NtRp869
(dp870
g67
(dp871
sg76
g865
sg69
(lp872
g62
(g83
g64
NtRp873
(dp874
g67
(dp875
g87
g88
ssg76
g869
sg69
(lp876
S'app_folders'
p877
asbag62
(g83
g64
NtRp878
(dp879
g67
(dp880
g94
g95
ssg76
g869
sg69
(lp881
S':'
asbag62
(g83
g64
NtRp882
(dp883
g67
(dp884
sg76
g869
sg69
(lp885
g62
(g63
g64
NtRp886
(dp887
g67
(dp888
g75
I4
ssg76
g882
sg69
(lp889
S"set(['/opt/smb4manager/applications/admin/', '/opt/smb4manager/applications/dashboard/'])"
p890
asbasbasbag62
(g78
g64
NtRp891
(dp892
g67
(dp893
sg76
g865
sg69
(lp894
g62
(g83
g64
NtRp895
(dp896
g67
(dp897
g87
g88
ssg76
g891
sg69
(lp898
S'applications_parent'
p899
asbag62
(g83
g64
NtRp900
(dp901
g67
(dp902
g94
g95
ssg76
g891
sg69
(lp903
S':'
asbag62
(g83
g64
NtRp904
(dp905
g67
(dp906
sg76
g891
sg69
(lp907
g62
(g63
g64
NtRp908
(dp909
g67
(dp910
g75
I4
ssg76
g904
sg69
(lp911
S'/opt/smb4manager'
p912
asbasbasbag62
(g78
g64
NtRp913
(dp914
g67
(dp915
sg76
g865
sg69
(lp916
g62
(g83
g64
NtRp917
(dp918
g67
(dp919
g87
g88
ssg76
g913
sg69
(lp920
S'cmd_args'
p921
asbag62
(g83
g64
NtRp922
(dp923
g67
(dp924
g94
g95
ssg76
g913
sg69
(lp925
S':'
asbag62
(g83
g64
NtRp926
(dp927
g67
(dp928
sg76
g913
sg69
(lp929
g62
(g63
g64
NtRp930
(dp931
g67
(dp932
g75
I4
ssg76
g926
sg69
(lp933
g62
(g71
g64
NtRp934
(dp935
g67
(dp936
g75
I3
ssg76
Nsg69
(lp937
sbasbasbasbag62
(g78
g64
NtRp938
(dp939
g67
(dp940
sg76
g865
sg69
(lp941
g62
(g83
g64
NtRp942
(dp943
g67
(dp944
g87
g88
ssg76
g938
sg69
(lp945
S'cmd_options'
p946
asbag62
(g83
g64
NtRp947
(dp948
g67
(dp949
g94
g95
ssg76
g938
sg69
(lp950
S':'
asbag62
(g83
g64
NtRp951
(dp952
g67
(dp953
sg76
g938
sg69
(lp954
g62
(g63
g64
NtRp955
(dp956
g67
(dp957
g75
I4
ssg76
g951
sg69
(lp958
S"<Values at 0x8d7236c: {'verbose': False, 'ip': '0.0.0.0', 'with_scheduler': False, 'ips': ['127.0.0.2'], 'shutdown_timeout': 5, 'taskbar': False, 'port': 8010, 'maxthreads': None, 'softcron': False, 'server_name': 'adm', 'bpython': False, 'nogui': True, 'pid_filename': 'httpserver.pid', 'extcron': False, 'runcron': False, 'run_system_tests': False, 'test': None, 'folder': '/opt/smb4manager', 'config': '', 'import_models': False, 'winservice': '', 'shell': None, 'run': '', 'log_filename': 'httpserver.log', 'debuglevel': 100, 'args': [''], 'socket_timeout': 5, 'ssl_ca_certificate': None, 'scheduler': None, 'profiler_filename': None, 'ssl_private_key': 'ssl/server.key', 'scheduler_groups': None, 'password': 'smb4manager', 'request_queue_size': 5, 'ssl_certificate': 'ssl/server.crt', 'cronjob': False, 'numthreads': None, 'quiet': False, 'interfaces': None, 'minthreads': None, 'timeout': 10, 'plain': False, 'nobanner': False}>"
p959
asbasbasbag62
(g78
g64
NtRp960
(dp961
g67
(dp962
sg76
g865
sg69
(lp963
g62
(g83
g64
NtRp964
(dp965
g67
(dp966
g87
g88
ssg76
g960
sg69
(lp967
S'db_sessions'
p968
asbag62
(g83
g64
NtRp969
(dp970
g67
(dp971
g94
g95
ssg76
g960
sg69
(lp972
S':'
asbag62
(g83
g64
NtRp973
(dp974
g67
(dp975
sg76
g960
sg69
(lp976
g62
(g63
g64
NtRp977
(dp978
g67
(dp979
g75
I4
ssg76
g973
sg69
(lp980
S'set([])'
p981
asbasbasbag62
(g78
g64
NtRp982
(dp983
g67
(dp984
sg76
g865
sg69
(lp985
g62
(g83
g64
NtRp986
(dp987
g67
(dp988
g87
g88
ssg76
g982
sg69
(lp989
S'debugging'
p990
asbag62
(g83
g64
NtRp991
(dp992
g67
(dp993
g94
g95
ssg76
g982
sg69
(lp994
S':'
asbag62
(g83
g64
NtRp995
(dp996
g67
(dp997
sg76
g982
sg69
(lp998
g62
(g63
g64
NtRp999
(dp1000
g67
(dp1001
g75
I4
ssg76
g995
sg69
(lp1002
g105
asbasbasbag62
(g78
g64
NtRp1003
(dp1004
g67
(dp1005
sg76
g865
sg69
(lp1006
g62
(g83
g64
NtRp1007
(dp1008
g67
(dp1009
g87
g88
ssg76
g1003
sg69
(lp1010
S'gluon_parent'
p1011
asbag62
(g83
g64
NtRp1012
(dp1013
g67
(dp1014
g94
g95
ssg76
g1003
sg69
(lp1015
S':'
asbag62
(g83
g64
NtRp1016
(dp1017
g67
(dp1018
sg76
g1003
sg69
(lp1019
g62
(g63
g64
NtRp1020
(dp1021
g67
(dp1022
g75
I4
ssg76
g1016
sg69
(lp1023
S'/opt/smb4manager'
p1024
asbasbasbag62
(g78
g64
NtRp1025
(dp1026
g67
(dp1027
sg76
g865
sg69
(lp1028
g62
(g83
g64
NtRp1029
(dp1030
g67
(dp1031
g87
g88
ssg76
g1025
sg69
(lp1032
S'http_accept'
p1033
asbag62
(g83
g64
NtRp1034
(dp1035
g67
(dp1036
g94
g95
ssg76
g1025
sg69
(lp1037
S':'
asbag62
(g83
g64
NtRp1038
(dp1039
g67
(dp1040
sg76
g1025
sg69
(lp1041
g62
(g63
g64
NtRp1042
(dp1043
g67
(dp1044
g75
I4
ssg76
g1038
sg69
(lp1045
S'text/html,application/xhtml+xml,application/xml;q=0.9,*/*;q=0.8'
p1046
asbasbasbag62
(g78
g64
NtRp1047
(dp1048
g67
(dp1049
sg76
g865
sg69
(lp1050
g62
(g83
g64
NtRp1051
(dp1052
g67
(dp1053
g87
g88
ssg76
g1047
sg69
(lp1054
S'http_accept_encoding'
p1055
asbag62
(g83
g64
NtRp1056
(dp1057
g67
(dp1058
g94
g95
ssg76
g1047
sg69
(lp1059
S':'
asbag62
(g83
g64
NtRp1060
(dp1061
g67
(dp1062
sg76
g1047
sg69
(lp1063
g62
(g63
g64
NtRp1064
(dp1065
g67
(dp1066
g75
I4
ssg76
g1060
sg69
(lp1067
S'gzip, deflate'
p1068
asbasbasbag62
(g78
g64
NtRp1069
(dp1070
g67
(dp1071
sg76
g865
sg69
(lp1072
g62
(g83
g64
NtRp1073
(dp1074
g67
(dp1075
g87
g88
ssg76
g1069
sg69
(lp1076
S'http_accept_language'
p1077
asbag62
(g83
g64
NtRp1078
(dp1079
g67
(dp1080
g94
g95
ssg76
g1069
sg69
(lp1081
S':'
asbag62
(g83
g64
NtRp1082
(dp1083
g67
(dp1084
sg76
g1069
sg69
(lp1085
g62
(g63
g64
NtRp1086
(dp1087
g67
(dp1088
g75
I4
ssg76
g1082
sg69
(lp1089
S'pt-BR,pt;q=0.8,en-US;q=0.5,en;q=0.3'
p1090
asbasbasbag62
(g78
g64
NtRp1091
(dp1092
g67
(dp1093
sg76
g865
sg69
(lp1094
g62
(g83
g64
NtRp1095
(dp1096
g67
(dp1097
g87
g88
ssg76
g1091
sg69
(lp1098
S'http_connection'
p1099
asbag62
(g83
g64
NtRp1100
(dp1101
g67
(dp1102
g94
g95
ssg76
g1091
sg69
(lp1103
S':'
asbag62
(g83
g64
NtRp1104
(dp1105
g67
(dp1106
sg76
g1091
sg69
(lp1107
g62
(g63
g64
NtRp1108
(dp1109
g67
(dp1110
g75
I4
ssg76
g1104
sg69
(lp1111
S'keep-alive'
p1112
asbasbasbag62
(g78
g64
NtRp1113
(dp1114
g67
(dp1115
sg76
g865
sg69
(lp1116
g62
(g83
g64
NtRp1117
(dp1118
g67
(dp1119
g87
g88
ssg76
g1113
sg69
(lp1120
S'http_cookie'
p1121
asbag62
(g83
g64
NtRp1122
(dp1123
g67
(dp1124
g94
g95
ssg76
g1113
sg69
(lp1125
S':'
asbag62
(g83
g64
NtRp1126
(dp1127
g67
(dp1128
sg76
g1113
sg69
(lp1129
g62
(g63
g64
NtRp1130
(dp1131
g67
(dp1132
g75
I4
ssg76
g1126
sg69
(lp1133
S'session_id_dashboard=192.168.20.23-65f160e7-fe40-46eb-a955-5731b27c67c6; session_id_admin=192.168.20.23-bb6d7022-37ea-42bf-aba2-3cf5b4b8fb51; adminLanguage=en-us'
p1134
asbasbasbag62
(g78
g64
NtRp1135
(dp1136
g67
(dp1137
sg76
g865
sg69
(lp1138
g62
(g83
g64
NtRp1139
(dp1140
g67
(dp1141
g87
g88
ssg76
g1135
sg69
(lp1142
S'http_host'
p1143
asbag62
(g83
g64
NtRp1144
(dp1145
g67
(dp1146
g94
g95
ssg76
g1135
sg69
(lp1147
S':'
asbag62
(g83
g64
NtRp1148
(dp1149
g67
(dp1150
sg76
g1135
sg69
(lp1151
g62
(g63
g64
NtRp1152
(dp1153
g67
(dp1154
g75
I4
ssg76
g1148
sg69
(lp1155
S'192.168.20.200:8010'
p1156
asbasbasbag62
(g78
g64
NtRp1157
(dp1158
g67
(dp1159
sg76
g865
sg69
(lp1160
g62
(g83
g64
NtRp1161
(dp1162
g67
(dp1163
g87
g88
ssg76
g1157
sg69
(lp1164
S'http_referer'
p1165
asbag62
(g83
g64
NtRp1166
(dp1167
g67
(dp1168
g94
g95
ssg76
g1157
sg69
(lp1169
S':'
asbag62
(g83
g64
NtRp1170
(dp1171
g67
(dp1172
sg76
g1157
sg69
(lp1173
g62
(g63
g64
NtRp1174
(dp1175
g67
(dp1176
g75
I4
ssg76
g1170
sg69
(lp1177
S'https://192.168.20.200:8010/admin/site'
p1178
asbasbasbag62
(g78
g64
NtRp1179
(dp1180
g67
(dp1181
sg76
g865
sg69
(lp1182
g62
(g83
g64
NtRp1183
(dp1184
g67
(dp1185
g87
g88
ssg76
g1179
sg69
(lp1186
S'http_user_agent'
p1187
asbag62
(g83
g64
NtRp1188
(dp1189
g67
(dp1190
g94
g95
ssg76
g1179
sg69
(lp1191
S':'
asbag62
(g83
g64
NtRp1192
(dp1193
g67
(dp1194
sg76
g1179
sg69
(lp1195
g62
(g63
g64
NtRp1196
(dp1197
g67
(dp1198
g75
I4
ssg76
g1192
sg69
(lp1199
S'Mozilla/5.0 (X11; Ubuntu; Linux x86_64; rv:18.0) Gecko/20100101 Firefox/18.0'
p1200
asbasbasbag62
(g78
g64
NtRp1201
(dp1202
g67
(dp1203
sg76
g865
sg69
(lp1204
g62
(g83
g64
NtRp1205
(dp1206
g67
(dp1207
g87
g88
ssg76
g1201
sg69
(lp1208
S'https'
p1209
asbag62
(g83
g64
NtRp1210
(dp1211
g67
(dp1212
g94
g95
ssg76
g1201
sg69
(lp1213
S':'
asbag62
(g83
g64
NtRp1214
(dp1215
g67
(dp1216
sg76
g1201
sg69
(lp1217
g62
(g63
g64
NtRp1218
(dp1219
g67
(dp1220
g75
I4
ssg76
g1214
sg69
(lp1221
S'on'
p1222
asbasbasbag62
(g78
g64
NtRp1223
(dp1224
g67
(dp1225
sg76
g865
sg69
(lp1226
g62
(g83
g64
NtRp1227
(dp1228
g67
(dp1229
g87
g88
ssg76
g1223
sg69
(lp1230
S'is_jython'
p1231
asbag62
(g83
g64
NtRp1232
(dp1233
g67
(dp1234
g94
g95
ssg76
g1223
sg69
(lp1235
S':'
asbag62
(g83
g64
NtRp1236
(dp1237
g67
(dp1238
sg76
g1223
sg69
(lp1239
g62
(g63
g64
NtRp1240
(dp1241
g67
(dp1242
g75
I4
ssg76
g1236
sg69
(lp1243
g105
asbasbasbag62
(g78
g64
NtRp1244
(dp1245
g67
(dp1246
sg76
g865
sg69
(lp1247
g62
(g83
g64
NtRp1248
(dp1249
g67
(dp1250
g87
g88
ssg76
g1244
sg69
(lp1251
S'is_pypy'
p1252
asbag62
(g83
g64
NtRp1253
(dp1254
g67
(dp1255
g94
g95
ssg76
g1244
sg69
(lp1256
S':'
asbag62
(g83
g64
NtRp1257
(dp1258
g67
(dp1259
sg76
g1244
sg69
(lp1260
g62
(g63
g64
NtRp1261
(dp1262
g67
(dp1263
g75
I4
ssg76
g1257
sg69
(lp1264
g105
asbasbasbag62
(g78
g64
NtRp1265
(dp1266
g67
(dp1267
sg76
g865
sg69
(lp1268
g62
(g83
g64
NtRp1269
(dp1270
g67
(dp1271
g87
g88
ssg76
g1265
sg69
(lp1272
S'local_hosts'
p1273
asbag62
(g83
g64
NtRp1274
(dp1275
g67
(dp1276
g94
g95
ssg76
g1265
sg69
(lp1277
S':'
asbag62
(g83
g64
NtRp1278
(dp1279
g67
(dp1280
sg76
g1265
sg69
(lp1281
g62
(g63
g64
NtRp1282
(dp1283
g67
(dp1284
g75
I4
ssg76
g1278
sg69
(lp1285
g62
(g71
g64
NtRp1286
(dp1287
g67
(dp1288
g75
I3
ssg76
Nsg69
(lp1289
g62
(g78
g64
NtRp1290
(dp1291
g67
(dp1292
sg76
g1286
sg69
(lp1293
g62
(g83
g64
NtRp1294
(dp1295
g67
(dp1296
sg76
g1290
sg69
(lp1297
g62
(g63
g64
NtRp1298
(dp1299
g67
(dp1300
g75
I3
ssg76
g1294
sg69
(lp1301
S'127.0.0.1'
p1302
asbasbasbag62
(g78
g64
NtRp1303
(dp1304
g67
(dp1305
sg76
g1286
sg69
(lp1306
g62
(g83
g64
NtRp1307
(dp1308
g67
(dp1309
sg76
g1303
sg69
(lp1310
g62
(g63
g64
NtRp1311
(dp1312
g67
(dp1313
g75
I3
ssg76
g1307
sg69
(lp1314
S'::ffff:127.0.0.1'
p1315
asbasbasbag62
(g78
g64
NtRp1316
(dp1317
g67
(dp1318
sg76
g1286
sg69
(lp1319
g62
(g83
g64
NtRp1320
(dp1321
g67
(dp1322
sg76
g1316
sg69
(lp1323
g62
(g63
g64
NtRp1324
(dp1325
g67
(dp1326
g75
I3
ssg76
g1320
sg69
(lp1327
S'adm'
p1328
asbasbasbag62
(g78
g64
NtRp1329
(dp1330
g67
(dp1331
sg76
g1286
sg69
(lp1332
g62
(g83
g64
NtRp1333
(dp1334
g67
(dp1335
sg76
g1329
sg69
(lp1336
g62
(g63
g64
NtRp1337
(dp1338
g67
(dp1339
g75
I3
ssg76
g1333
sg69
(lp1340
S'adm'
p1341
asbasbasbag62
(g78
g64
NtRp1342
(dp1343
g67
(dp1344
sg76
g1286
sg69
(lp1345
g62
(g83
g64
NtRp1346
(dp1347
g67
(dp1348
sg76
g1342
sg69
(lp1349
g62
(g63
g64
NtRp1350
(dp1351
g67
(dp1352
g75
I3
ssg76
g1346
sg69
(lp1353
S'127.0.0.2'
p1354
asbasbasbasbasbasbasbag62
(g78
g64
NtRp1355
(dp1356
g67
(dp1357
sg76
g865
sg69
(lp1358
g62
(g83
g64
NtRp1359
(dp1360
g67
(dp1361
g87
g88
ssg76
g1355
sg69
(lp1362
S'path_info'
p1363
asbag62
(g83
g64
NtRp1364
(dp1365
g67
(dp1366
g94
g95
ssg76
g1355
sg69
(lp1367
S':'
asbag62
(g83
g64
NtRp1368
(dp1369
g67
(dp1370
sg76
g1355
sg69
(lp1371
g62
(g63
g64
NtRp1372
(dp1373
g67
(dp1374
g75
I4
ssg76
g1368
sg69
(lp1375
S'/admin/design/dashboard'
p1376
asbasbasbag62
(g78
g64
NtRp1377
(dp1378
g67
(dp1379
sg76
g865
sg69
(lp1380
g62
(g83
g64
NtRp1381
(dp1382
g67
(dp1383
g87
g88
ssg76
g1377
sg69
(lp1384
S'query_string'
p1385
asbag62
(g83
g64
NtRp1386
(dp1387
g67
(dp1388
g94
g95
ssg76
g1377
sg69
(lp1389
S':'
asbag62
(g83
g64
NtRp1390
(dp1391
g67
(dp1392
sg76
g1377
sg69
(lp1393
g62
(g63
g64
NtRp1394
(dp1395
g67
(dp1396
g75
I4
ssg76
g1390
sg69
(lp1397
S''
asbasbasbag62
(g78
g64
NtRp1398
(dp1399
g67
(dp1400
sg76
g865
sg69
(lp1401
g62
(g83
g64
NtRp1402
(dp1403
g67
(dp1404
g87
g88
ssg76
g1398
sg69
(lp1405
S'remote_addr'
p1406
asbag62
(g83
g64
NtRp1407
(dp1408
g67
(dp1409
g94
g95
ssg76
g1398
sg69
(lp1410
S':'
asbag62
(g83
g64
NtRp1411
(dp1412
g67
(dp1413
sg76
g1398
sg69
(lp1414
g62
(g63
g64
NtRp1415
(dp1416
g67
(dp1417
g75
I4
ssg76
g1411
sg69
(lp1418
g230
asbasbasbag62
(g78
g64
NtRp1419
(dp1420
g67
(dp1421
sg76
g865
sg69
(lp1422
g62
(g83
g64
NtRp1423
(dp1424
g67
(dp1425
g87
g88
ssg76
g1419
sg69
(lp1426
S'remote_port'
p1427
asbag62
(g83
g64
NtRp1428
(dp1429
g67
(dp1430
g94
g95
ssg76
g1419
sg69
(lp1431
S':'
asbag62
(g83
g64
NtRp1432
(dp1433
g67
(dp1434
sg76
g1419
sg69
(lp1435
g62
(g63
g64
NtRp1436
(dp1437
g67
(dp1438
g75
I4
ssg76
g1432
sg69
(lp1439
S'37830'
p1440
asbasbasbag62
(g78
g64
NtRp1441
(dp1442
g67
(dp1443
sg76
g865
sg69
(lp1444
g62
(g83
g64
NtRp1445
(dp1446
g67
(dp1447
g87
g88
ssg76
g1441
sg69
(lp1448
S'request_method'
p1449
asbag62
(g83
g64
NtRp1450
(dp1451
g67
(dp1452
g94
g95
ssg76
g1441
sg69
(lp1453
S':'
asbag62
(g83
g64
NtRp1454
(dp1455
g67
(dp1456
sg76
g1441
sg69
(lp1457
g62
(g63
g64
NtRp1458
(dp1459
g67
(dp1460
g75
I4
ssg76
g1454
sg69
(lp1461
S'GET'
p1462
asbasbasbag62
(g78
g64
NtRp1463
(dp1464
g67
(dp1465
sg76
g865
sg69
(lp1466
g62
(g83
g64
NtRp1467
(dp1468
g67
(dp1469
g87
g88
ssg76
g1463
sg69
(lp1470
S'request_uri'
p1471
asbag62
(g83
g64
NtRp1472
(dp1473
g67
(dp1474
g94
g95
ssg76
g1463
sg69
(lp1475
S':'
asbag62
(g83
g64
NtRp1476
(dp1477
g67
(dp1478
sg76
g1463
sg69
(lp1479
g62
(g63
g64
NtRp1480
(dp1481
g67
(dp1482
g75
I4
ssg76
g1476
sg69
(lp1483
S'/admin/default/design/dashboard'
p1484
asbasbasbag62
(g78
g64
NtRp1485
(dp1486
g67
(dp1487
sg76
g865
sg69
(lp1488
g62
(g83
g64
NtRp1489
(dp1490
g67
(dp1491
g87
g88
ssg76
g1485
sg69
(lp1492
S'script_name'
p1493
asbag62
(g83
g64
NtRp1494
(dp1495
g67
(dp1496
g94
g95
ssg76
g1485
sg69
(lp1497
S':'
asbag62
(g83
g64
NtRp1498
(dp1499
g67
(dp1500
sg76
g1485
sg69
(lp1501
g62
(g63
g64
NtRp1502
(dp1503
g67
(dp1504
g75
I4
ssg76
g1498
sg69
(lp1505
S''
asbasbasbag62
(g78
g64
NtRp1506
(dp1507
g67
(dp1508
sg76
g865
sg69
(lp1509
g62
(g83
g64
NtRp1510
(dp1511
g67
(dp1512
g87
g88
ssg76
g1506
sg69
(lp1513
S'server_name'
p1514
asbag62
(g83
g64
NtRp1515
(dp1516
g67
(dp1517
g94
g95
ssg76
g1506
sg69
(lp1518
S':'
asbag62
(g83
g64
NtRp1519
(dp1520
g67
(dp1521
sg76
g1506
sg69
(lp1522
g62
(g63
g64
NtRp1523
(dp1524
g67
(dp1525
g75
I4
ssg76
g1519
sg69
(lp1526
g1341
asbasbasbag62
(g78
g64
NtRp1527
(dp1528
g67
(dp1529
sg76
g865
sg69
(lp1530
g62
(g83
g64
NtRp1531
(dp1532
g67
(dp1533
g87
g88
ssg76
g1527
sg69
(lp1534
S'server_port'
p1535
asbag62
(g83
g64
NtRp1536
(dp1537
g67
(dp1538
g94
g95
ssg76
g1527
sg69
(lp1539
S':'
asbag62
(g83
g64
NtRp1540
(dp1541
g67
(dp1542
sg76
g1527
sg69
(lp1543
g62
(g63
g64
NtRp1544
(dp1545
g67
(dp1546
g75
I4
ssg76
g1540
sg69
(lp1547
S'8010'
p1548
asbasbasbag62
(g78
g64
NtRp1549
(dp1550
g67
(dp1551
sg76
g865
sg69
(lp1552
g62
(g83
g64
NtRp1553
(dp1554
g67
(dp1555
g87
g88
ssg76
g1549
sg69
(lp1556
S'server_protocol'
p1557
asbag62
(g83
g64
NtRp1558
(dp1559
g67
(dp1560
g94
g95
ssg76
g1549
sg69
(lp1561
S':'
asbag62
(g83
g64
NtRp1562
(dp1563
g67
(dp1564
sg76
g1549
sg69
(lp1565
g62
(g63
g64
NtRp1566
(dp1567
g67
(dp1568
g75
I4
ssg76
g1562
sg69
(lp1569
S'HTTP/1.1'
p1570
asbasbasbag62
(g78
g64
NtRp1571
(dp1572
g67
(dp1573
sg76
g865
sg69
(lp1574
g62
(g83
g64
NtRp1575
(dp1576
g67
(dp1577
g87
g88
ssg76
g1571
sg69
(lp1578
S'server_software'
p1579
asbag62
(g83
g64
NtRp1580
(dp1581
g67
(dp1582
g94
g95
ssg76
g1571
sg69
(lp1583
S':'
asbag62
(g83
g64
NtRp1584
(dp1585
g67
(dp1586
sg76
g1571
sg69
(lp1587
g62
(g63
g64
NtRp1588
(dp1589
g67
(dp1590
g75
I4
ssg76
g1584
sg69
(lp1591
S'Rocket 1.2.5'
p1592
asbasbasbag62
(g78
g64
NtRp1593
(dp1594
g67
(dp1595
sg76
g865
sg69
(lp1596
g62
(g83
g64
NtRp1597
(dp1598
g67
(dp1599
g87
g88
ssg76
g1593
sg69
(lp1600
S'ssl_client_raw_cert'
p1601
asbag62
(g83
g64
NtRp1602
(dp1603
g67
(dp1604
g94
g95
ssg76
g1593
sg69
(lp1605
S':'
asbag62
(g83
g64
NtRp1606
(dp1607
g67
(dp1608
sg76
g1593
sg69
(lp1609
g62
(g63
g64
NtRp1610
(dp1611
g67
(dp1612
g75
I4
ssg76
g1606
sg69
(lp1613
S'None'
p1614
asbasbasbag62
(g78
g64
NtRp1615
(dp1616
g67
(dp1617
sg76
g865
sg69
(lp1618
g62
(g83
g64
NtRp1619
(dp1620
g67
(dp1621
g87
g88
ssg76
g1615
sg69
(lp1622
S'web2py_original_uri'
p1623
asbag62
(g83
g64
NtRp1624
(dp1625
g67
(dp1626
g94
g95
ssg76
g1615
sg69
(lp1627
S':'
asbag62
(g83
g64
NtRp1628
(dp1629
g67
(dp1630
sg76
g1615
sg69
(lp1631
g62
(g63
g64
NtRp1632
(dp1633
g67
(dp1634
g75
I4
ssg76
g1628
sg69
(lp1635
g1376
asbasbasbag62
(g78
g64
NtRp1636
(dp1637
g67
(dp1638
sg76
g865
sg69
(lp1639
g62
(g83
g64
NtRp1640
(dp1641
g67
(dp1642
g87
g88
ssg76
g1636
sg69
(lp1643
S'web2py_path'
p1644
asbag62
(g83
g64
NtRp1645
(dp1646
g67
(dp1647
g94
g95
ssg76
g1636
sg69
(lp1648
S':'
asbag62
(g83
g64
NtRp1649
(dp1650
g67
(dp1651
sg76
g1636
sg69
(lp1652
g62
(g63
g64
NtRp1653
(dp1654
g67
(dp1655
g75
I4
ssg76
g1649
sg69
(lp1656
g912
asbasbasbag62
(g78
g64
NtRp1657
(dp1658
g67
(dp1659
sg76
g865
sg69
(lp1660
g62
(g83
g64
NtRp1661
(dp1662
g67
(dp1663
g87
g88
ssg76
g1657
sg69
(lp1664
S'web2py_version'
p1665
asbag62
(g83
g64
NtRp1666
(dp1667
g67
(dp1668
g94
g95
ssg76
g1657
sg69
(lp1669
S':'
asbag62
(g83
g64
NtRp1670
(dp1671
g67
(dp1672
sg76
g1657
sg69
(lp1673
g62
(g63
g64
NtRp1674
(dp1675
g67
(dp1676
g75
I4
ssg76
g1670
sg69
(lp1677
g62
(g71
g64
NtRp1678
(dp1679
g67
(dp1680
g75
I3
ssg76
Nsg69
(lp1681
g62
(g78
g64
NtRp1682
(dp1683
g67
(dp1684
sg76
g1678
sg69
(lp1685
g62
(g83
g64
NtRp1686
(dp1687
g67
(dp1688
sg76
g1682
sg69
(lp1689
g62
(g63
g64
NtRp1690
(dp1691
g67
(dp1692
g75
I3
ssg76
g1686
sg69
(lp1693
S'2'
asbasbasbag62
(g78
g64
NtRp1694
(dp1695
g67
(dp1696
sg76
g1678
sg69
(lp1697
g62
(g83
g64
NtRp1698
(dp1699
g67
(dp1700
sg76
g1694
sg69
(lp1701
g62
(g63
g64
NtRp1702
(dp1703
g67
(dp1704
g75
I3
ssg76
g1698
sg69
(lp1705
S'2'
asbasbasbag62
(g78
g64
NtRp1706
(dp1707
g67
(dp1708
sg76
g1678
sg69
(lp1709
g62
(g83
g64
NtRp1710
(dp1711
g67
(dp1712
sg76
g1706
sg69
(lp1713
g62
(g63
g64
NtRp1714
(dp1715
g67
(dp1716
g75
I3
ssg76
g1710
sg69
(lp1717
S'1'
asbasbasbag62
(g78
g64
NtRp1718
(dp1719
g67
(dp1720
sg76
g1678
sg69
(lp1721
g62
(g83
g64
NtRp1722
(dp1723
g67
(dp1724
sg76
g1718
sg69
(lp1725
g62
(g63
g64
NtRp1726
(dp1727
g67
(dp1728
g75
I3
ssg76
g1722
sg69
(lp1729
S'datetime.datetime(2012, 10, 21, 16, 57, 4)'
p1730
asbasbasbag62
(g78
g64
NtRp1731
(dp1732
g67
(dp1733
sg76
g1678
sg69
(lp1734
g62
(g83
g64
NtRp1735
(dp1736
g67
(dp1737
sg76
g1731
sg69
(lp1738
g62
(g63
g64
NtRp1739
(dp1740
g67
(dp1741
g75
I3
ssg76
g1735
sg69
(lp1742
S'stable'
p1743
asbasbasbasbasbasbasbag62
(g78
g64
NtRp1744
(dp1745
g67
(dp1746
sg76
g865
sg69
(lp1747
g62
(g83
g64
NtRp1748
(dp1749
g67
(dp1750
g87
g88
ssg76
g1744
sg69
(lp1751
S'wsgi_errors'
p1752
asbag62
(g83
g64
NtRp1753
(dp1754
g67
(dp1755
g94
g95
ssg76
g1744
sg69
(lp1756
S':'
asbag62
(g83
g64
NtRp1757
(dp1758
g67
(dp1759
sg76
g1744
sg69
(lp1760
g62
(g63
g64
NtRp1761
(dp1762
g67
(dp1763
g75
I4
ssg76
g1757
sg69
(lp1764
S"<open file '<stderr>', mode 'w' at 0xb73f70d0>"
p1765
asbasbasbag62
(g78
g64
NtRp1766
(dp1767
g67
(dp1768
sg76
g865
sg69
(lp1769
g62
(g83
g64
NtRp1770
(dp1771
g67
(dp1772
g87
g88
ssg76
g1766
sg69
(lp1773
S'wsgi_file_wrapper'
p1774
asbag62
(g83
g64
NtRp1775
(dp1776
g67
(dp1777
g94
g95
ssg76
g1766
sg69
(lp1778
S':'
asbag62
(g83
g64
NtRp1779
(dp1780
g67
(dp1781
sg76
g1766
sg69
(lp1782
g62
(g63
g64
NtRp1783
(dp1784
g67
(dp1785
g75
I4
ssg76
g1779
sg69
(lp1786
S'<class wsgiref.util.FileWrapper at 0x8db259c>'
p1787
asbasbasbag62
(g78
g64
NtRp1788
(dp1789
g67
(dp1790
sg76
g865
sg69
(lp1791
g62
(g83
g64
NtRp1792
(dp1793
g67
(dp1794
g87
g88
ssg76
g1788
sg69
(lp1795
S'wsgi_input'
p1796
asbag62
(g83
g64
NtRp1797
(dp1798
g67
(dp1799
g94
g95
ssg76
g1788
sg69
(lp1800
S':'
asbag62
(g83
g64
NtRp1801
(dp1802
g67
(dp1803
sg76
g1788
sg69
(lp1804
g62
(g63
g64
NtRp1805
(dp1806
g67
(dp1807
g75
I4
ssg76
g1801
sg69
(lp1808
S'<socket._fileobject object at 0x8ebdeac>'
p1809
asbasbasbag62
(g78
g64
NtRp1810
(dp1811
g67
(dp1812
sg76
g865
sg69
(lp1813
g62
(g83
g64
NtRp1814
(dp1815
g67
(dp1816
g87
g88
ssg76
g1810
sg69
(lp1817
S'wsgi_multiprocess'
p1818
asbag62
(g83
g64
NtRp1819
(dp1820
g67
(dp1821
g94
g95
ssg76
g1810
sg69
(lp1822
S':'
asbag62
(g83
g64
NtRp1823
(dp1824
g67
(dp1825
sg76
g1810
sg69
(lp1826
g62
(g63
g64
NtRp1827
(dp1828
g67
(dp1829
g75
I4
ssg76
g1823
sg69
(lp1830
g105
asbasbasbag62
(g78
g64
NtRp1831
(dp1832
g67
(dp1833
sg76
g865
sg69
(lp1834
g62
(g83
g64
NtRp1835
(dp1836
g67
(dp1837
g87
g88
ssg76
g1831
sg69
(lp1838
S'wsgi_multithread'
p1839
asbag62
(g83
g64
NtRp1840
(dp1841
g67
(dp1842
g94
g95
ssg76
g1831
sg69
(lp1843
S':'
asbag62
(g83
g64
NtRp1844
(dp1845
g67
(dp1846
sg76
g1831
sg69
(lp1847
g62
(g63
g64
NtRp1848
(dp1849
g67
(dp1850
g75
I4
ssg76
g1844
sg69
(lp1851
S'True'
p1852
asbasbasbag62
(g78
g64
NtRp1853
(dp1854
g67
(dp1855
sg76
g865
sg69
(lp1856
g62
(g83
g64
NtRp1857
(dp1858
g67
(dp1859
g87
g88
ssg76
g1853
sg69
(lp1860
S'wsgi_run_once'
p1861
asbag62
(g83
g64
NtRp1862
(dp1863
g67
(dp1864
g94
g95
ssg76
g1853
sg69
(lp1865
S':'
asbag62
(g83
g64
NtRp1866
(dp1867
g67
(dp1868
sg76
g1853
sg69
(lp1869
g62
(g63
g64
NtRp1870
(dp1871
g67
(dp1872
g75
I4
ssg76
g1866
sg69
(lp1873
g105
asbasbasbag62
(g78
g64
NtRp1874
(dp1875
g67
(dp1876
sg76
g865
sg69
(lp1877
g62
(g83
g64
NtRp1878
(dp1879
g67
(dp1880
g87
g88
ssg76
g1874
sg69
(lp1881
S'wsgi_url_scheme'
p1882
asbag62
(g83
g64
NtRp1883
(dp1884
g67
(dp1885
g94
g95
ssg76
g1874
sg69
(lp1886
S':'
asbag62
(g83
g64
NtRp1887
(dp1888
g67
(dp1889
sg76
g1874
sg69
(lp1890
g62
(g63
g64
NtRp1891
(dp1892
g67
(dp1893
g75
I4
ssg76
g1887
sg69
(lp1894
S'https'
p1895
asbasbasbag62
(g78
g64
NtRp1896
(dp1897
g67
(dp1898
sg76
g865
sg69
(lp1899
g62
(g83
g64
NtRp1900
(dp1901
g67
(dp1902
g87
g88
ssg76
g1896
sg69
(lp1903
S'wsgi_version'
p1904
asbag62
(g83
g64
NtRp1905
(dp1906
g67
(dp1907
g94
g95
ssg76
g1896
sg69
(lp1908
S':'
asbag62
(g83
g64
NtRp1909
(dp1910
g67
(dp1911
sg76
g1896
sg69
(lp1912
g62
(g63
g64
NtRp1913
(dp1914
g67
(dp1915
g75
I4
ssg76
g1909
sg69
(lp1916
g62
(g71
g64
NtRp1917
(dp1918
g67
(dp1919
g75
I3
ssg76
Nsg69
(lp1920
g62
(g78
g64
NtRp1921
(dp1922
g67
(dp1923
sg76
g1917
sg69
(lp1924
g62
(g83
g64
NtRp1925
(dp1926
g67
(dp1927
sg76
g1921
sg69
(lp1928
g62
(g63
g64
NtRp1929
(dp1930
g67
(dp1931
g75
I3
ssg76
g1925
sg69
(lp1932
S'1'
asbasbasbag62
(g78
g64
NtRp1933
(dp1934
g67
(dp1935
sg76
g1917
sg69
(lp1936
g62
(g83
g64
NtRp1937
(dp1938
g67
(dp1939
sg76
g1933
sg69
(lp1940
g62
(g63
g64
NtRp1941
(dp1942
g67
(dp1943
g75
I3
ssg76
g1937
sg69
(lp1944
S'0'
asbasbasbasbasbasbasbasbasbasbasbag62
(g78
g64
NtRp1945
(dp1946
g67
(dp1947
sg76
g72
sg69
(lp1948
g62
(g83
g64
NtRp1949
(dp1950
g67
(dp1951
g87
g88
ssg76
g1945
sg69
(lp1952
S'extension'
p1953
asbag62
(g83
g64
NtRp1954
(dp1955
g67
(dp1956
g94
g95
ssg76
g1945
sg69
(lp1957
S':'
asbag62
(g83
g64
NtRp1958
(dp1959
g67
(dp1960
sg76
g1945
sg69
(lp1961
g62
(g63
g64
NtRp1962
(dp1963
g67
(dp1964
g75
I5
ssg76
g1958
sg69
(lp1965
S'html'
p1966
asbasbasbag62
(g78
g64
NtRp1967
(dp1968
g67
(dp1969
sg76
g72
sg69
(lp1970
g62
(g83
g64
NtRp1971
(dp1972
g67
(dp1973
g87
g88
ssg76
g1967
sg69
(lp1974
S'folder'
p1975
asbag62
(g83
g64
NtRp1976
(dp1977
g67
(dp1978
g94
g95
ssg76
g1967
sg69
(lp1979
S':'
asbag62
(g83
g64
NtRp1980
(dp1981
g67
(dp1982
sg76
g1967
sg69
(lp1983
g62
(g63
g64
NtRp1984
(dp1985
g67
(dp1986
g75
I5
ssg76
g1980
sg69
(lp1987
S'/opt/smb4manager/applications/admin/'
p1988
asbasbasbag62
(g78
g64
NtRp1989
(dp1990
g67
(dp1991
sg76
g72
sg69
(lp1992
g62
(g83
g64
NtRp1993
(dp1994
g67
(dp1995
g87
g88
ssg76
g1989
sg69
(lp1996
S'function'
p1997
asbag62
(g83
g64
NtRp1998
(dp1999
g67
(dp2000
g94
g95
ssg76
g1989
sg69
(lp2001
S':'
asbag62
(g83
g64
NtRp2002
(dp2003
g67
(dp2004
sg76
g1989
sg69
(lp2005
g62
(g63
g64
NtRp2006
(dp2007
g67
(dp2008
g75
I5
ssg76
g2002
sg69
(lp2009
S'design'
p2010
asbasbasbag62
(g78
g64
NtRp2011
(dp2012
g67
(dp2013
sg76
g72
sg69
(lp2014
g62
(g83
g64
NtRp2015
(dp2016
g67
(dp2017
g87
g88
ssg76
g2011
sg69
(lp2018
S'get_vars'
p2019
asbag62
(g83
g64
NtRp2020
(dp2021
g67
(dp2022
g94
g95
ssg76
g2011
sg69
(lp2023
S':'
asbag62
(g83
g64
NtRp2024
(dp2025
g67
(dp2026
sg76
g2011
sg69
(lp2027
g62
(g63
g64
NtRp2028
(dp2029
g67
(dp2030
g75
I5
ssg76
g2024
sg69
(lp2031
g62
(g71
g64
NtRp2032
(dp2033
g67
(dp2034
g75
I4
ssg76
Nsg69
(lp2035
sbasbasbasbag62
(g78
g64
NtRp2036
(dp2037
g67
(dp2038
sg76
g72
sg69
(lp2039
g62
(g83
g64
NtRp2040
(dp2041
g67
(dp2042
g87
g88
ssg76
g2036
sg69
(lp2043
S'global_settings'
p2044
asbag62
(g83
g64
NtRp2045
(dp2046
g67
(dp2047
g94
g95
ssg76
g2036
sg69
(lp2048
S':'
asbag62
(g83
g64
NtRp2049
(dp2050
g67
(dp2051
sg76
g2036
sg69
(lp2052
g62
(g63
g64
NtRp2053
(dp2054
g67
(dp2055
g75
I5
ssg76
g2049
sg69
(lp2056
g62
(g71
g64
NtRp2057
(dp2058
g67
(dp2059
g75
I4
ssg76
Nsg69
(lp2060
g62
(g78
g64
NtRp2061
(dp2062
g67
(dp2063
sg76
g2057
sg69
(lp2064
g62
(g83
g64
NtRp2065
(dp2066
g67
(dp2067
g87
g88
ssg76
g2061
sg69
(lp2068
g877
asbag62
(g83
g64
NtRp2069
(dp2070
g67
(dp2071
g94
g95
ssg76
g2061
sg69
(lp2072
S':'
asbag62
(g83
g64
NtRp2073
(dp2074
g67
(dp2075
sg76
g2061
sg69
(lp2076
g62
(g63
g64
NtRp2077
(dp2078
g67
(dp2079
g75
I4
ssg76
g2073
sg69
(lp2080
S"set(['/opt/smb4manager/applications/admin/', '/opt/smb4manager/applications/dashboard/'])"
p2081
asbasbasbag62
(g78
g64
NtRp2082
(dp2083
g67
(dp2084
sg76
g2057
sg69
(lp2085
g62
(g83
g64
NtRp2086
(dp2087
g67
(dp2088
g87
g88
ssg76
g2082
sg69
(lp2089
g899
asbag62
(g83
g64
NtRp2090
(dp2091
g67
(dp2092
g94
g95
ssg76
g2082
sg69
(lp2093
S':'
asbag62
(g83
g64
NtRp2094
(dp2095
g67
(dp2096
sg76
g2082
sg69
(lp2097
g62
(g63
g64
NtRp2098
(dp2099
g67
(dp2100
g75
I4
ssg76
g2094
sg69
(lp2101
g912
asbasbasbag62
(g78
g64
NtRp2102
(dp2103
g67
(dp2104
sg76
g2057
sg69
(lp2105
g62
(g83
g64
NtRp2106
(dp2107
g67
(dp2108
g87
g88
ssg76
g2102
sg69
(lp2109
g921
asbag62
(g83
g64
NtRp2110
(dp2111
g67
(dp2112
g94
g95
ssg76
g2102
sg69
(lp2113
S':'
asbag62
(g83
g64
NtRp2114
(dp2115
g67
(dp2116
sg76
g2102
sg69
(lp2117
g62
(g63
g64
NtRp2118
(dp2119
g67
(dp2120
g75
I4
ssg76
g2114
sg69
(lp2121
g62
(g71
g64
NtRp2122
(dp2123
g67
(dp2124
g75
I3
ssg76
Nsg69
(lp2125
sbasbasbasbag62
(g78
g64
NtRp2126
(dp2127
g67
(dp2128
sg76
g2057
sg69
(lp2129
g62
(g83
g64
NtRp2130
(dp2131
g67
(dp2132
g87
g88
ssg76
g2126
sg69
(lp2133
g946
asbag62
(g83
g64
NtRp2134
(dp2135
g67
(dp2136
g94
g95
ssg76
g2126
sg69
(lp2137
S':'
asbag62
(g83
g64
NtRp2138
(dp2139
g67
(dp2140
sg76
g2126
sg69
(lp2141
g62
(g63
g64
NtRp2142
(dp2143
g67
(dp2144
g75
I4
ssg76
g2138
sg69
(lp2145
S"<Values at 0x8d7236c: {'verbose': False, 'ip': '0.0.0.0', 'with_scheduler': False, 'ips': ['127.0.0.2'], 'shutdown_timeout': 5, 'taskbar': False, 'port': 8010, 'maxthreads': None, 'softcron': False, 'server_name': 'adm', 'bpython': False, 'nogui': True, 'pid_filename': 'httpserver.pid', 'extcron': False, 'runcron': False, 'run_system_tests': False, 'test': None, 'folder': '/opt/smb4manager', 'config': '', 'import_models': False, 'winservice': '', 'shell': None, 'run': '', 'log_filename': 'httpserver.log', 'debuglevel': 100, 'args': [''], 'socket_timeout': 5, 'ssl_ca_certificate': None, 'scheduler': None, 'profiler_filename': None, 'ssl_private_key': 'ssl/server.key', 'scheduler_groups': None, 'password': 'smb4manager', 'request_queue_size': 5, 'ssl_certificate': 'ssl/server.crt', 'cronjob': False, 'numthreads': None, 'quiet': False, 'interfaces': None, 'minthreads': None, 'timeout': 10, 'plain': False, 'nobanner': False}>"
p2146
asbasbasbag62
(g78
g64
NtRp2147
(dp2148
g67
(dp2149
sg76
g2057
sg69
(lp2150
g62
(g83
g64
NtRp2151
(dp2152
g67
(dp2153
g87
g88
ssg76
g2147
sg69
(lp2154
g968
asbag62
(g83
g64
NtRp2155
(dp2156
g67
(dp2157
g94
g95
ssg76
g2147
sg69
(lp2158
S':'
asbag62
(g83
g64
NtRp2159
(dp2160
g67
(dp2161
sg76
g2147
sg69
(lp2162
g62
(g63
g64
NtRp2163
(dp2164
g67
(dp2165
g75
I4
ssg76
g2159
sg69
(lp2166
S'set([])'
p2167
asbasbasbag62
(g78
g64
NtRp2168
(dp2169
g67
(dp2170
sg76
g2057
sg69
(lp2171
g62
(g83
g64
NtRp2172
(dp2173
g67
(dp2174
g87
g88
ssg76
g2168
sg69
(lp2175
g990
asbag62
(g83
g64
NtRp2176
(dp2177
g67
(dp2178
g94
g95
ssg76
g2168
sg69
(lp2179
S':'
asbag62
(g83
g64
NtRp2180
(dp2181
g67
(dp2182
sg76
g2168
sg69
(lp2183
g62
(g63
g64
NtRp2184
(dp2185
g67
(dp2186
g75
I4
ssg76
g2180
sg69
(lp2187
g105
asbasbasbag62
(g78
g64
NtRp2188
(dp2189
g67
(dp2190
sg76
g2057
sg69
(lp2191
g62
(g83
g64
NtRp2192
(dp2193
g67
(dp2194
g87
g88
ssg76
g2188
sg69
(lp2195
g1011
asbag62
(g83
g64
NtRp2196
(dp2197
g67
(dp2198
g94
g95
ssg76
g2188
sg69
(lp2199
S':'
asbag62
(g83
g64
NtRp2200
(dp2201
g67
(dp2202
sg76
g2188
sg69
(lp2203
g62
(g63
g64
NtRp2204
(dp2205
g67
(dp2206
g75
I4
ssg76
g2200
sg69
(lp2207
g1024
asbasbasbag62
(g78
g64
NtRp2208
(dp2209
g67
(dp2210
sg76
g2057
sg69
(lp2211
g62
(g83
g64
NtRp2212
(dp2213
g67
(dp2214
g87
g88
ssg76
g2208
sg69
(lp2215
g1231
asbag62
(g83
g64
NtRp2216
(dp2217
g67
(dp2218
g94
g95
ssg76
g2208
sg69
(lp2219
S':'
asbag62
(g83
g64
NtRp2220
(dp2221
g67
(dp2222
sg76
g2208
sg69
(lp2223
g62
(g63
g64
NtRp2224
(dp2225
g67
(dp2226
g75
I4
ssg76
g2220
sg69
(lp2227
g105
asbasbasbag62
(g78
g64
NtRp2228
(dp2229
g67
(dp2230
sg76
g2057
sg69
(lp2231
g62
(g83
g64
NtRp2232
(dp2233
g67
(dp2234
g87
g88
ssg76
g2228
sg69
(lp2235
g1252
asbag62
(g83
g64
NtRp2236
(dp2237
g67
(dp2238
g94
g95
ssg76
g2228
sg69
(lp2239
S':'
asbag62
(g83
g64
NtRp2240
(dp2241
g67
(dp2242
sg76
g2228
sg69
(lp2243
g62
(g63
g64
NtRp2244
(dp2245
g67
(dp2246
g75
I4
ssg76
g2240
sg69
(lp2247
g105
asbasbasbag62
(g78
g64
NtRp2248
(dp2249
g67
(dp2250
sg76
g2057
sg69
(lp2251
g62
(g83
g64
NtRp2252
(dp2253
g67
(dp2254
g87
g88
ssg76
g2248
sg69
(lp2255
g1273
asbag62
(g83
g64
NtRp2256
(dp2257
g67
(dp2258
g94
g95
ssg76
g2248
sg69
(lp2259
S':'
asbag62
(g83
g64
NtRp2260
(dp2261
g67
(dp2262
sg76
g2248
sg69
(lp2263
g62
(g63
g64
NtRp2264
(dp2265
g67
(dp2266
g75
I4
ssg76
g2260
sg69
(lp2267
g62
(g71
g64
NtRp2268
(dp2269
g67
(dp2270
g75
I3
ssg76
Nsg69
(lp2271
g62
(g78
g64
NtRp2272
(dp2273
g67
(dp2274
sg76
g2268
sg69
(lp2275
g62
(g83
g64
NtRp2276
(dp2277
g67
(dp2278
sg76
g2272
sg69
(lp2279
g62
(g63
g64
NtRp2280
(dp2281
g67
(dp2282
g75
I3
ssg76
g2276
sg69
(lp2283
g1302
asbasbasbag62
(g78
g64
NtRp2284
(dp2285
g67
(dp2286
sg76
g2268
sg69
(lp2287
g62
(g83
g64
NtRp2288
(dp2289
g67
(dp2290
sg76
g2284
sg69
(lp2291
g62
(g63
g64
NtRp2292
(dp2293
g67
(dp2294
g75
I3
ssg76
g2288
sg69
(lp2295
g1315
asbasbasbag62
(g78
g64
NtRp2296
(dp2297
g67
(dp2298
sg76
g2268
sg69
(lp2299
g62
(g83
g64
NtRp2300
(dp2301
g67
(dp2302
sg76
g2296
sg69
(lp2303
g62
(g63
g64
NtRp2304
(dp2305
g67
(dp2306
g75
I3
ssg76
g2300
sg69
(lp2307
g1328
asbasbasbag62
(g78
g64
NtRp2308
(dp2309
g67
(dp2310
sg76
g2268
sg69
(lp2311
g62
(g83
g64
NtRp2312
(dp2313
g67
(dp2314
sg76
g2308
sg69
(lp2315
g62
(g63
g64
NtRp2316
(dp2317
g67
(dp2318
g75
I3
ssg76
g2312
sg69
(lp2319
g1341
asbasbasbag62
(g78
g64
NtRp2320
(dp2321
g67
(dp2322
sg76
g2268
sg69
(lp2323
g62
(g83
g64
NtRp2324
(dp2325
g67
(dp2326
sg76
g2320
sg69
(lp2327
g62
(g63
g64
NtRp2328
(dp2329
g67
(dp2330
g75
I3
ssg76
g2324
sg69
(lp2331
g1354
asbasbasbasbasbasbasbag62
(g78
g64
NtRp2332
(dp2333
g67
(dp2334
sg76
g2057
sg69
(lp2335
g62
(g83
g64
NtRp2336
(dp2337
g67
(dp2338
g87
g88
ssg76
g2332
sg69
(lp2339
g1665
asbag62
(g83
g64
NtRp2340
(dp2341
g67
(dp2342
g94
g95
ssg76
g2332
sg69
(lp2343
S':'
asbag62
(g83
g64
NtRp2344
(dp2345
g67
(dp2346
sg76
g2332
sg69
(lp2347
g62
(g63
g64
NtRp2348
(dp2349
g67
(dp2350
g75
I4
ssg76
g2344
sg69
(lp2351
g62
(g71
g64
NtRp2352
(dp2353
g67
(dp2354
g75
I3
ssg76
Nsg69
(lp2355
g62
(g78
g64
NtRp2356
(dp2357
g67
(dp2358
sg76
g2352
sg69
(lp2359
g62
(g83
g64
NtRp2360
(dp2361
g67
(dp2362
sg76
g2356
sg69
(lp2363
g62
(g63
g64
NtRp2364
(dp2365
g67
(dp2366
g75
I3
ssg76
g2360
sg69
(lp2367
S'2'
asbasbasbag62
(g78
g64
NtRp2368
(dp2369
g67
(dp2370
sg76
g2352
sg69
(lp2371
g62
(g83
g64
NtRp2372
(dp2373
g67
(dp2374
sg76
g2368
sg69
(lp2375
g62
(g63
g64
NtRp2376
(dp2377
g67
(dp2378
g75
I3
ssg76
g2372
sg69
(lp2379
S'2'
asbasbasbag62
(g78
g64
NtRp2380
(dp2381
g67
(dp2382
sg76
g2352
sg69
(lp2383
g62
(g83
g64
NtRp2384
(dp2385
g67
(dp2386
sg76
g2380
sg69
(lp2387
g62
(g63
g64
NtRp2388
(dp2389
g67
(dp2390
g75
I3
ssg76
g2384
sg69
(lp2391
S'1'
asbasbasbag62
(g78
g64
NtRp2392
(dp2393
g67
(dp2394
sg76
g2352
sg69
(lp2395
g62
(g83
g64
NtRp2396
(dp2397
g67
(dp2398
sg76
g2392
sg69
(lp2399
g62
(g63
g64
NtRp2400
(dp2401
g67
(dp2402
g75
I3
ssg76
g2396
sg69
(lp2403
S'datetime.datetime(2012, 10, 21, 16, 57, 4)'
p2404
asbasbasbag62
(g78
g64
NtRp2405
(dp2406
g67
(dp2407
sg76
g2352
sg69
(lp2408
g62
(g83
g64
NtRp2409
(dp2410
g67
(dp2411
sg76
g2405
sg69
(lp2412
g62
(g63
g64
NtRp2413
(dp2414
g67
(dp2415
g75
I3
ssg76
g2409
sg69
(lp2416
g1743
asbasbasbasbasbasbasbasbasbasbasbag62
(g78
g64
NtRp2417
(dp2418
g67
(dp2419
sg76
g72
sg69
(lp2420
g62
(g83
g64
NtRp2421
(dp2422
g67
(dp2423
g87
g88
ssg76
g2417
sg69
(lp2424
S'is_https'
p2425
asbag62
(g83
g64
NtRp2426
(dp2427
g67
(dp2428
g94
g95
ssg76
g2417
sg69
(lp2429
S':'
asbag62
(g83
g64
NtRp2430
(dp2431
g67
(dp2432
sg76
g2417
sg69
(lp2433
g62
(g63
g64
NtRp2434
(dp2435
g67
(dp2436
g75
I5
ssg76
g2430
sg69
(lp2437
g1852
asbasbasbag62
(g78
g64
NtRp2438
(dp2439
g67
(dp2440
sg76
g72
sg69
(lp2441
g62
(g83
g64
NtRp2442
(dp2443
g67
(dp2444
g87
g88
ssg76
g2438
sg69
(lp2445
S'is_local'
p2446
asbag62
(g83
g64
NtRp2447
(dp2448
g67
(dp2449
g94
g95
ssg76
g2438
sg69
(lp2450
S':'
asbag62
(g83
g64
NtRp2451
(dp2452
g67
(dp2453
sg76
g2438
sg69
(lp2454
g62
(g63
g64
NtRp2455
(dp2456
g67
(dp2457
g75
I5
ssg76
g2451
sg69
(lp2458
g105
asbasbasbag62
(g78
g64
NtRp2459
(dp2460
g67
(dp2461
sg76
g72
sg69
(lp2462
g62
(g83
g64
NtRp2463
(dp2464
g67
(dp2465
g87
g88
ssg76
g2459
sg69
(lp2466
S'is_restful'
p2467
asbag62
(g83
g64
NtRp2468
(dp2469
g67
(dp2470
g94
g95
ssg76
g2459
sg69
(lp2471
S':'
asbag62
(g83
g64
NtRp2472
(dp2473
g67
(dp2474
sg76
g2459
sg69
(lp2475
g62
(g63
g64
NtRp2476
(dp2477
g67
(dp2478
g75
I5
ssg76
g2472
sg69
(lp2479
g105
asbasbasbag62
(g78
g64
NtRp2480
(dp2481
g67
(dp2482
sg76
g72
sg69
(lp2483
g62
(g83
g64
NtRp2484
(dp2485
g67
(dp2486
g87
g88
ssg76
g2480
sg69
(lp2487
S'now'
p2488
asbag62
(g83
g64
NtRp2489
(dp2490
g67
(dp2491
g94
g95
ssg76
g2480
sg69
(lp2492
S':'
asbag62
(g83
g64
NtRp2493
(dp2494
g67
(dp2495
sg76
g2480
sg69
(lp2496
g62
(g63
g64
NtRp2497
(dp2498
g67
(dp2499
g75
I5
ssg76
g2493
sg69
(lp2500
S'datetime.datetime(2013, 1, 28, 13, 10, 38, 958541)'
p2501
asbasbasbag62
(g78
g64
NtRp2502
(dp2503
g67
(dp2504
sg76
g72
sg69
(lp2505
g62
(g83
g64
NtRp2506
(dp2507
g67
(dp2508
g87
g88
ssg76
g2502
sg69
(lp2509
S'post_vars'
p2510
asbag62
(g83
g64
NtRp2511
(dp2512
g67
(dp2513
g94
g95
ssg76
g2502
sg69
(lp2514
S':'
asbag62
(g83
g64
NtRp2515
(dp2516
g67
(dp2517
sg76
g2502
sg69
(lp2518
g62
(g63
g64
NtRp2519
(dp2520
g67
(dp2521
g75
I5
ssg76
g2515
sg69
(lp2522
g62
(g71
g64
NtRp2523
(dp2524
g67
(dp2525
g75
I4
ssg76
Nsg69
(lp2526
sbasbasbasbag62
(g78
g64
NtRp2527
(dp2528
g67
(dp2529
sg76
g72
sg69
(lp2530
g62
(g83
g64
NtRp2531
(dp2532
g67
(dp2533
g87
g88
ssg76
g2527
sg69
(lp2534
S'url'
p2535
asbag62
(g83
g64
NtRp2536
(dp2537
g67
(dp2538
g94
g95
ssg76
g2527
sg69
(lp2539
S':'
asbag62
(g83
g64
NtRp2540
(dp2541
g67
(dp2542
sg76
g2527
sg69
(lp2543
g62
(g63
g64
NtRp2544
(dp2545
g67
(dp2546
g75
I5
ssg76
g2540
sg69
(lp2547
g1376
asbasbasbag62
(g78
g64
NtRp2548
(dp2549
g67
(dp2550
sg76
g72
sg69
(lp2551
g62
(g83
g64
NtRp2552
(dp2553
g67
(dp2554
g87
g88
ssg76
g2548
sg69
(lp2555
S'utcnow'
p2556
asbag62
(g83
g64
NtRp2557
(dp2558
g67
(dp2559
g94
g95
ssg76
g2548
sg69
(lp2560
S':'
asbag62
(g83
g64
NtRp2561
(dp2562
g67
(dp2563
sg76
g2548
sg69
(lp2564
g62
(g63
g64
NtRp2565
(dp2566
g67
(dp2567
g75
I5
ssg76
g2561
sg69
(lp2568
S'datetime.datetime(2013, 1, 28, 15, 10, 38, 958564)'
p2569
asbasbasbag62
(g78
g64
NtRp2570
(dp2571
g67
(dp2572
sg76
g72
sg69
(lp2573
g62
(g83
g64
NtRp2574
(dp2575
g67
(dp2576
g87
g88
ssg76
g2570
sg69
(lp2577
S'uuid'
p2578
asbag62
(g83
g64
NtRp2579
(dp2580
g67
(dp2581
g94
g95
ssg76
g2570
sg69
(lp2582
S':'
asbag62
(g83
g64
NtRp2583
(dp2584
g67
(dp2585
sg76
g2570
sg69
(lp2586
g62
(g63
g64
NtRp2587
(dp2588
g67
(dp2589
g75
I5
ssg76
g2583
sg69
(lp2590
S'admin/192.168.20.23.2013-01-28.13-10-38.5fe09cd4-c564-431f-9b7e-fb63ec4a9509'
p2591
asbasbasbag62
(g78
g64
NtRp2592
(dp2593
g67
(dp2594
sg76
g72
sg69
(lp2595
g62
(g83
g64
NtRp2596
(dp2597
g67
(dp2598
g87
g88
ssg76
g2592
sg69
(lp2599
S'vars'
p2600
asbag62
(g83
g64
NtRp2601
(dp2602
g67
(dp2603
g94
g95
ssg76
g2592
sg69
(lp2604
S':'
asbag62
(g83
g64
NtRp2605
(dp2606
g67
(dp2607
sg76
g2592
sg69
(lp2608
g62
(g63
g64
NtRp2609
(dp2610
g67
(dp2611
g75
I5
ssg76
g2605
sg69
(lp2612
g62
(g71
g64
NtRp2613
(dp2614
g67
(dp2615
g75
I4
ssg76
Nsg69
(lp2616
sbasbasbasbag62
(g78
g64
NtRp2617
(dp2618
g67
(dp2619
sg76
g72
sg69
(lp2620
g62
(g83
g64
NtRp2621
(dp2622
g67
(dp2623
g87
g88
ssg76
g2617
sg69
(lp2624
S'wsgi'
p2625
asbag62
(g83
g64
NtRp2626
(dp2627
g67
(dp2628
g94
g95
ssg76
g2617
sg69
(lp2629
S':'
asbag62
(g83
g64
NtRp2630
(dp2631
g67
(dp2632
sg76
g2617
sg69
(lp2633
g62
(g63
g64
NtRp2634
(dp2635
g67
(dp2636
g75
I5
ssg76
g2630
sg69
(lp2637
g62
(g71
g64
NtRp2638
(dp2639
g67
(dp2640
g75
I4
ssg76
Nsg69
(lp2641
g62
(g78
g64
NtRp2642
(dp2643
g67
(dp2644
sg76
g2638
sg69
(lp2645
g62
(g83
g64
NtRp2646
(dp2647
g67
(dp2648
g87
g88
ssg76
g2642
sg69
(lp2649
S'environ'
p2650
asbag62
(g83
g64
NtRp2651
(dp2652
g67
(dp2653
g94
g95
ssg76
g2642
sg69
(lp2654
S':'
asbag62
(g83
g64
NtRp2655
(dp2656
g67
(dp2657
sg76
g2642
sg69
(lp2658
g62
(g63
g64
NtRp2659
(dp2660
g67
(dp2661
g75
I4
ssg76
g2655
sg69
(lp2662
g62
(g71
g64
NtRp2663
(dp2664
g67
(dp2665
g75
I3
ssg76
Nsg69
(lp2666
g62
(g78
g64
NtRp2667
(dp2668
g67
(dp2669
sg76
g2663
sg69
(lp2670
g62
(g83
g64
NtRp2671
(dp2672
g67
(dp2673
g87
g88
ssg76
g2667
sg69
(lp2674
S'HTTPS'
p2675
asbag62
(g83
g64
NtRp2676
(dp2677
g67
(dp2678
g94
g95
ssg76
g2667
sg69
(lp2679
S':'
asbag62
(g83
g64
NtRp2680
(dp2681
g67
(dp2682
sg76
g2667
sg69
(lp2683
g62
(g63
g64
NtRp2684
(dp2685
g67
(dp2686
g75
I3
ssg76
g2680
sg69
(lp2687
g1222
asbasbasbag62
(g78
g64
NtRp2688
(dp2689
g67
(dp2690
sg76
g2663
sg69
(lp2691
g62
(g83
g64
NtRp2692
(dp2693
g67
(dp2694
g87
g88
ssg76
g2688
sg69
(lp2695
S'HTTP_ACCEPT'
p2696
asbag62
(g83
g64
NtRp2697
(dp2698
g67
(dp2699
g94
g95
ssg76
g2688
sg69
(lp2700
S':'
asbag62
(g83
g64
NtRp2701
(dp2702
g67
(dp2703
sg76
g2688
sg69
(lp2704
g62
(g63
g64
NtRp2705
(dp2706
g67
(dp2707
g75
I3
ssg76
g2701
sg69
(lp2708
g1046
asbasbasbag62
(g78
g64
NtRp2709
(dp2710
g67
(dp2711
sg76
g2663
sg69
(lp2712
g62
(g83
g64
NtRp2713
(dp2714
g67
(dp2715
g87
g88
ssg76
g2709
sg69
(lp2716
S'HTTP_ACCEPT_ENCODING'
p2717
asbag62
(g83
g64
NtRp2718
(dp2719
g67
(dp2720
g94
g95
ssg76
g2709
sg69
(lp2721
S':'
asbag62
(g83
g64
NtRp2722
(dp2723
g67
(dp2724
sg76
g2709
sg69
(lp2725
g62
(g63
g64
NtRp2726
(dp2727
g67
(dp2728
g75
I3
ssg76
g2722
sg69
(lp2729
g1068
asbasbasbag62
(g78
g64
NtRp2730
(dp2731
g67
(dp2732
sg76
g2663
sg69
(lp2733
g62
(g83
g64
NtRp2734
(dp2735
g67
(dp2736
g87
g88
ssg76
g2730
sg69
(lp2737
S'HTTP_ACCEPT_LANGUAGE'
p2738
asbag62
(g83
g64
NtRp2739
(dp2740
g67
(dp2741
g94
g95
ssg76
g2730
sg69
(lp2742
S':'
asbag62
(g83
g64
NtRp2743
(dp2744
g67
(dp2745
sg76
g2730
sg69
(lp2746
g62
(g63
g64
NtRp2747
(dp2748
g67
(dp2749
g75
I3
ssg76
g2743
sg69
(lp2750
g1090
asbasbasbag62
(g78
g64
NtRp2751
(dp2752
g67
(dp2753
sg76
g2663
sg69
(lp2754
g62
(g83
g64
NtRp2755
(dp2756
g67
(dp2757
g87
g88
ssg76
g2751
sg69
(lp2758
S'HTTP_CONNECTION'
p2759
asbag62
(g83
g64
NtRp2760
(dp2761
g67
(dp2762
g94
g95
ssg76
g2751
sg69
(lp2763
S':'
asbag62
(g83
g64
NtRp2764
(dp2765
g67
(dp2766
sg76
g2751
sg69
(lp2767
g62
(g63
g64
NtRp2768
(dp2769
g67
(dp2770
g75
I3
ssg76
g2764
sg69
(lp2771
g1112
asbasbasbag62
(g78
g64
NtRp2772
(dp2773
g67
(dp2774
sg76
g2663
sg69
(lp2775
g62
(g83
g64
NtRp2776
(dp2777
g67
(dp2778
g87
g88
ssg76
g2772
sg69
(lp2779
S'HTTP_COOKIE'
p2780
asbag62
(g83
g64
NtRp2781
(dp2782
g67
(dp2783
g94
g95
ssg76
g2772
sg69
(lp2784
S':'
asbag62
(g83
g64
NtRp2785
(dp2786
g67
(dp2787
sg76
g2772
sg69
(lp2788
g62
(g63
g64
NtRp2789
(dp2790
g67
(dp2791
g75
I3
ssg76
g2785
sg69
(lp2792
g1134
asbasbasbag62
(g78
g64
NtRp2793
(dp2794
g67
(dp2795
sg76
g2663
sg69
(lp2796
g62
(g83
g64
NtRp2797
(dp2798
g67
(dp2799
g87
g88
ssg76
g2793
sg69
(lp2800
S'HTTP_HOST'
p2801
asbag62
(g83
g64
NtRp2802
(dp2803
g67
(dp2804
g94
g95
ssg76
g2793
sg69
(lp2805
S':'
asbag62
(g83
g64
NtRp2806
(dp2807
g67
(dp2808
sg76
g2793
sg69
(lp2809
g62
(g63
g64
NtRp2810
(dp2811
g67
(dp2812
g75
I3
ssg76
g2806
sg69
(lp2813
g1156
asbasbasbag62
(g78
g64
NtRp2814
(dp2815
g67
(dp2816
sg76
g2663
sg69
(lp2817
g62
(g83
g64
NtRp2818
(dp2819
g67
(dp2820
g87
g88
ssg76
g2814
sg69
(lp2821
S'HTTP_REFERER'
p2822
asbag62
(g83
g64
NtRp2823
(dp2824
g67
(dp2825
g94
g95
ssg76
g2814
sg69
(lp2826
S':'
asbag62
(g83
g64
NtRp2827
(dp2828
g67
(dp2829
sg76
g2814
sg69
(lp2830
g62
(g63
g64
NtRp2831
(dp2832
g67
(dp2833
g75
I3
ssg76
g2827
sg69
(lp2834
g1178
asbasbasbag62
(g78
g64
NtRp2835
(dp2836
g67
(dp2837
sg76
g2663
sg69
(lp2838
g62
(g83
g64
NtRp2839
(dp2840
g67
(dp2841
g87
g88
ssg76
g2835
sg69
(lp2842
S'HTTP_USER_AGENT'
p2843
asbag62
(g83
g64
NtRp2844
(dp2845
g67
(dp2846
g94
g95
ssg76
g2835
sg69
(lp2847
S':'
asbag62
(g83
g64
NtRp2848
(dp2849
g67
(dp2850
sg76
g2835
sg69
(lp2851
g62
(g63
g64
NtRp2852
(dp2853
g67
(dp2854
g75
I3
ssg76
g2848
sg69
(lp2855
g1200
asbasbasbag62
(g78
g64
NtRp2856
(dp2857
g67
(dp2858
sg76
g2663
sg69
(lp2859
g62
(g83
g64
NtRp2860
(dp2861
g67
(dp2862
g87
g88
ssg76
g2856
sg69
(lp2863
S'PATH_INFO'
p2864
asbag62
(g83
g64
NtRp2865
(dp2866
g67
(dp2867
g94
g95
ssg76
g2856
sg69
(lp2868
S':'
asbag62
(g83
g64
NtRp2869
(dp2870
g67
(dp2871
sg76
g2856
sg69
(lp2872
g62
(g63
g64
NtRp2873
(dp2874
g67
(dp2875
g75
I3
ssg76
g2869
sg69
(lp2876
g1376
asbasbasbag62
(g78
g64
NtRp2877
(dp2878
g67
(dp2879
sg76
g2663
sg69
(lp2880
g62
(g83
g64
NtRp2881
(dp2882
g67
(dp2883
g87
g88
ssg76
g2877
sg69
(lp2884
S'QUERY_STRING'
p2885
asbag62
(g83
g64
NtRp2886
(dp2887
g67
(dp2888
g94
g95
ssg76
g2877
sg69
(lp2889
S':'
asbag62
(g83
g64
NtRp2890
(dp2891
g67
(dp2892
sg76
g2877
sg69
(lp2893
g62
(g63
g64
NtRp2894
(dp2895
g67
(dp2896
g75
I3
ssg76
g2890
sg69
(lp2897
S''
asbasbasbag62
(g78
g64
NtRp2898
(dp2899
g67
(dp2900
sg76
g2663
sg69
(lp2901
g62
(g83
g64
NtRp2902
(dp2903
g67
(dp2904
g87
g88
ssg76
g2898
sg69
(lp2905
S'REMOTE_ADDR'
p2906
asbag62
(g83
g64
NtRp2907
(dp2908
g67
(dp2909
g94
g95
ssg76
g2898
sg69
(lp2910
S':'
asbag62
(g83
g64
NtRp2911
(dp2912
g67
(dp2913
sg76
g2898
sg69
(lp2914
g62
(g63
g64
NtRp2915
(dp2916
g67
(dp2917
g75
I3
ssg76
g2911
sg69
(lp2918
g230
asbasbasbag62
(g78
g64
NtRp2919
(dp2920
g67
(dp2921
sg76
g2663
sg69
(lp2922
g62
(g83
g64
NtRp2923
(dp2924
g67
(dp2925
g87
g88
ssg76
g2919
sg69
(lp2926
S'REMOTE_PORT'
p2927
asbag62
(g83
g64
NtRp2928
(dp2929
g67
(dp2930
g94
g95
ssg76
g2919
sg69
(lp2931
S':'
asbag62
(g83
g64
NtRp2932
(dp2933
g67
(dp2934
sg76
g2919
sg69
(lp2935
g62
(g63
g64
NtRp2936
(dp2937
g67
(dp2938
g75
I3
ssg76
g2932
sg69
(lp2939
g1440
asbasbasbag62
(g78
g64
NtRp2940
(dp2941
g67
(dp2942
sg76
g2663
sg69
(lp2943
g62
(g83
g64
NtRp2944
(dp2945
g67
(dp2946
g87
g88
ssg76
g2940
sg69
(lp2947
S'REQUEST_METHOD'
p2948
asbag62
(g83
g64
NtRp2949
(dp2950
g67
(dp2951
g94
g95
ssg76
g2940
sg69
(lp2952
S':'
asbag62
(g83
g64
NtRp2953
(dp2954
g67
(dp2955
sg76
g2940
sg69
(lp2956
g62
(g63
g64
NtRp2957
(dp2958
g67
(dp2959
g75
I3
ssg76
g2953
sg69
(lp2960
g1462
asbasbasbag62
(g78
g64
NtRp2961
(dp2962
g67
(dp2963
sg76
g2663
sg69
(lp2964
g62
(g83
g64
NtRp2965
(dp2966
g67
(dp2967
g87
g88
ssg76
g2961
sg69
(lp2968
S'REQUEST_URI'
p2969
asbag62
(g83
g64
NtRp2970
(dp2971
g67
(dp2972
g94
g95
ssg76
g2961
sg69
(lp2973
S':'
asbag62
(g83
g64
NtRp2974
(dp2975
g67
(dp2976
sg76
g2961
sg69
(lp2977
g62
(g63
g64
NtRp2978
(dp2979
g67
(dp2980
g75
I3
ssg76
g2974
sg69
(lp2981
g1484
asbasbasbag62
(g78
g64
NtRp2982
(dp2983
g67
(dp2984
sg76
g2663
sg69
(lp2985
g62
(g83
g64
NtRp2986
(dp2987
g67
(dp2988
g87
g88
ssg76
g2982
sg69
(lp2989
S'SCRIPT_NAME'
p2990
asbag62
(g83
g64
NtRp2991
(dp2992
g67
(dp2993
g94
g95
ssg76
g2982
sg69
(lp2994
S':'
asbag62
(g83
g64
NtRp2995
(dp2996
g67
(dp2997
sg76
g2982
sg69
(lp2998
g62
(g63
g64
NtRp2999
(dp3000
g67
(dp3001
g75
I3
ssg76
g2995
sg69
(lp3002
S''
asbasbasbag62
(g78
g64
NtRp3003
(dp3004
g67
(dp3005
sg76
g2663
sg69
(lp3006
g62
(g83
g64
NtRp3007
(dp3008
g67
(dp3009
g87
g88
ssg76
g3003
sg69
(lp3010
S'SERVER_NAME'
p3011
asbag62
(g83
g64
NtRp3012
(dp3013
g67
(dp3014
g94
g95
ssg76
g3003
sg69
(lp3015
S':'
asbag62
(g83
g64
NtRp3016
(dp3017
g67
(dp3018
sg76
g3003
sg69
(lp3019
g62
(g63
g64
NtRp3020
(dp3021
g67
(dp3022
g75
I3
ssg76
g3016
sg69
(lp3023
g1341
asbasbasbag62
(g78
g64
NtRp3024
(dp3025
g67
(dp3026
sg76
g2663
sg69
(lp3027
g62
(g83
g64
NtRp3028
(dp3029
g67
(dp3030
g87
g88
ssg76
g3024
sg69
(lp3031
S'SERVER_PORT'
p3032
asbag62
(g83
g64
NtRp3033
(dp3034
g67
(dp3035
g94
g95
ssg76
g3024
sg69
(lp3036
S':'
asbag62
(g83
g64
NtRp3037
(dp3038
g67
(dp3039
sg76
g3024
sg69
(lp3040
g62
(g63
g64
NtRp3041
(dp3042
g67
(dp3043
g75
I3
ssg76
g3037
sg69
(lp3044
g1548
asbasbasbag62
(g78
g64
NtRp3045
(dp3046
g67
(dp3047
sg76
g2663
sg69
(lp3048
g62
(g83
g64
NtRp3049
(dp3050
g67
(dp3051
g87
g88
ssg76
g3045
sg69
(lp3052
S'SERVER_PROTOCOL'
p3053
asbag62
(g83
g64
NtRp3054
(dp3055
g67
(dp3056
g94
g95
ssg76
g3045
sg69
(lp3057
S':'
asbag62
(g83
g64
NtRp3058
(dp3059
g67
(dp3060
sg76
g3045
sg69
(lp3061
g62
(g63
g64
NtRp3062
(dp3063
g67
(dp3064
g75
I3
ssg76
g3058
sg69
(lp3065
g1570
asbasbasbag62
(g78
g64
NtRp3066
(dp3067
g67
(dp3068
sg76
g2663
sg69
(lp3069
g62
(g83
g64
NtRp3070
(dp3071
g67
(dp3072
g87
g88
ssg76
g3066
sg69
(lp3073
S'SERVER_SOFTWARE'
p3074
asbag62
(g83
g64
NtRp3075
(dp3076
g67
(dp3077
g94
g95
ssg76
g3066
sg69
(lp3078
S':'
asbag62
(g83
g64
NtRp3079
(dp3080
g67
(dp3081
sg76
g3066
sg69
(lp3082
g62
(g63
g64
NtRp3083
(dp3084
g67
(dp3085
g75
I3
ssg76
g3079
sg69
(lp3086
g1592
asbasbasbag62
(g78
g64
NtRp3087
(dp3088
g67
(dp3089
sg76
g2663
sg69
(lp3090
g62
(g83
g64
NtRp3091
(dp3092
g67
(dp3093
g87
g88
ssg76
g3087
sg69
(lp3094
S'SSL_CLIENT_RAW_CERT'
p3095
asbag62
(g83
g64
NtRp3096
(dp3097
g67
(dp3098
g94
g95
ssg76
g3087
sg69
(lp3099
S':'
asbag62
(g83
g64
NtRp3100
(dp3101
g67
(dp3102
sg76
g3087
sg69
(lp3103
g62
(g63
g64
NtRp3104
(dp3105
g67
(dp3106
g75
I3
ssg76
g3100
sg69
(lp3107
S'None'
p3108
asbasbasbag62
(g78
g64
NtRp3109
(dp3110
g67
(dp3111
sg76
g2663
sg69
(lp3112
g62
(g83
g64
NtRp3113
(dp3114
g67
(dp3115
g87
g88
ssg76
g3109
sg69
(lp3116
S'WEB2PY_ORIGINAL_URI'
p3117
asbag62
(g83
g64
NtRp3118
(dp3119
g67
(dp3120
g94
g95
ssg76
g3109
sg69
(lp3121
S':'
asbag62
(g83
g64
NtRp3122
(dp3123
g67
(dp3124
sg76
g3109
sg69
(lp3125
g62
(g63
g64
NtRp3126
(dp3127
g67
(dp3128
g75
I3
ssg76
g3122
sg69
(lp3129
g1376
asbasbasbag62
(g78
g64
NtRp3130
(dp3131
g67
(dp3132
sg76
g2663
sg69
(lp3133
g62
(g83
g64
NtRp3134
(dp3135
g67
(dp3136
g87
g88
ssg76
g3130
sg69
(lp3137
S'wsgi.errors'
p3138
asbag62
(g83
g64
NtRp3139
(dp3140
g67
(dp3141
g94
g95
ssg76
g3130
sg69
(lp3142
S':'
asbag62
(g83
g64
NtRp3143
(dp3144
g67
(dp3145
sg76
g3130
sg69
(lp3146
g62
(g63
g64
NtRp3147
(dp3148
g67
(dp3149
g75
I3
ssg76
g3143
sg69
(lp3150
S"<open file '<stderr>', mode 'w' at 0xb73f70d0>"
p3151
asbasbasbag62
(g78
g64
NtRp3152
(dp3153
g67
(dp3154
sg76
g2663
sg69
(lp3155
g62
(g83
g64
NtRp3156
(dp3157
g67
(dp3158
g87
g88
ssg76
g3152
sg69
(lp3159
S'wsgi.file_wrapper'
p3160
asbag62
(g83
g64
NtRp3161
(dp3162
g67
(dp3163
g94
g95
ssg76
g3152
sg69
(lp3164
S':'
asbag62
(g83
g64
NtRp3165
(dp3166
g67
(dp3167
sg76
g3152
sg69
(lp3168
g62
(g63
g64
NtRp3169
(dp3170
g67
(dp3171
g75
I3
ssg76
g3165
sg69
(lp3172
S'<class wsgiref.util.FileWrapper at 0x8db259c>'
p3173
asbasbasbag62
(g78
g64
NtRp3174
(dp3175
g67
(dp3176
sg76
g2663
sg69
(lp3177
g62
(g83
g64
NtRp3178
(dp3179
g67
(dp3180
g87
g88
ssg76
g3174
sg69
(lp3181
S'wsgi.input'
p3182
asbag62
(g83
g64
NtRp3183
(dp3184
g67
(dp3185
g94
g95
ssg76
g3174
sg69
(lp3186
S':'
asbag62
(g83
g64
NtRp3187
(dp3188
g67
(dp3189
sg76
g3174
sg69
(lp3190
g62
(g63
g64
NtRp3191
(dp3192
g67
(dp3193
g75
I3
ssg76
g3187
sg69
(lp3194
S'<cStringIO.StringO object at 0x8eefb80>'
p3195
asbasbasbag62
(g78
g64
NtRp3196
(dp3197
g67
(dp3198
sg76
g2663
sg69
(lp3199
g62
(g83
g64
NtRp3200
(dp3201
g67
(dp3202
g87
g88
ssg76
g3196
sg69
(lp3203
S'wsgi.multiprocess'
p3204
asbag62
(g83
g64
NtRp3205
(dp3206
g67
(dp3207
g94
g95
ssg76
g3196
sg69
(lp3208
S':'
asbag62
(g83
g64
NtRp3209
(dp3210
g67
(dp3211
sg76
g3196
sg69
(lp3212
g62
(g63
g64
NtRp3213
(dp3214
g67
(dp3215
g75
I3
ssg76
g3209
sg69
(lp3216
g105
asbasbasbag62
(g78
g64
NtRp3217
(dp3218
g67
(dp3219
sg76
g2663
sg69
(lp3220
g62
(g83
g64
NtRp3221
(dp3222
g67
(dp3223
g87
g88
ssg76
g3217
sg69
(lp3224
S'wsgi.multithread'
p3225
asbag62
(g83
g64
NtRp3226
(dp3227
g67
(dp3228
g94
g95
ssg76
g3217
sg69
(lp3229
S':'
asbag62
(g83
g64
NtRp3230
(dp3231
g67
(dp3232
sg76
g3217
sg69
(lp3233
g62
(g63
g64
NtRp3234
(dp3235
g67
(dp3236
g75
I3
ssg76
g3230
sg69
(lp3237
g1852
asbasbasbag62
(g78
g64
NtRp3238
(dp3239
g67
(dp3240
sg76
g2663
sg69
(lp3241
g62
(g83
g64
NtRp3242
(dp3243
g67
(dp3244
g87
g88
ssg76
g3238
sg69
(lp3245
S'wsgi.run_once'
p3246
asbag62
(g83
g64
NtRp3247
(dp3248
g67
(dp3249
g94
g95
ssg76
g3238
sg69
(lp3250
S':'
asbag62
(g83
g64
NtRp3251
(dp3252
g67
(dp3253
sg76
g3238
sg69
(lp3254
g62
(g63
g64
NtRp3255
(dp3256
g67
(dp3257
g75
I3
ssg76
g3251
sg69
(lp3258
g105
asbasbasbag62
(g78
g64
NtRp3259
(dp3260
g67
(dp3261
sg76
g2663
sg69
(lp3262
g62
(g83
g64
NtRp3263
(dp3264
g67
(dp3265
g87
g88
ssg76
g3259
sg69
(lp3266
S'wsgi.url_scheme'
p3267
asbag62
(g83
g64
NtRp3268
(dp3269
g67
(dp3270
g94
g95
ssg76
g3259
sg69
(lp3271
S':'
asbag62
(g83
g64
NtRp3272
(dp3273
g67
(dp3274
sg76
g3259
sg69
(lp3275
g62
(g63
g64
NtRp3276
(dp3277
g67
(dp3278
g75
I3
ssg76
g3272
sg69
(lp3279
g1895
asbasbasbag62
(g78
g64
NtRp3280
(dp3281
g67
(dp3282
sg76
g2663
sg69
(lp3283
g62
(g83
g64
NtRp3284
(dp3285
g67
(dp3286
g87
g88
ssg76
g3280
sg69
(lp3287
S'wsgi.version'
p3288
asbag62
(g83
g64
NtRp3289
(dp3290
g67
(dp3291
g94
g95
ssg76
g3280
sg69
(lp3292
S':'
asbag62
(g83
g64
NtRp3293
(dp3294
g67
(dp3295
sg76
g3280
sg69
(lp3296
g62
(g63
g64
NtRp3297
(dp3298
g67
(dp3299
g75
I3
ssg76
g3293
sg69
(lp3300
S'1'
asbasbasbasbasbasbasbasbasbasbasbasbasbsS'frames'
p3301
(lp3302
(dp3303
S'file'
p3304
S'/opt/smb4manager/gluon/restricted.py'
p3305
sS'dump'
p3306
(dp3307
S'environment'
p3308
S"{'A': <class 'gluon.html.A'>, 'ALLOW_TOGGLE': 'true', 'A_button': <function A_button>, 'B': <class 'gluon.html.B'>, 'BEAUTIFY': <class 'gluon.html.BEAUTIFY'>, 'BODY': <class 'gluon.html.BODY'>, 'BR': <class 'gluon.html.BR'>, 'BUTTON': <class 'gluon.html.BUTTON'>, 'CAT': <class 'gluon.html.CAT'>, 'CENTER': <class 'gluon.html.CENTER'>, ...}"
p3309
sS'ccode'
p3310
S'<code object <module> at 0xb003a608, file "/opt/...plications/admin/controllers/default.py", line 3>'
p3311
ssS'lnum'
p3312
I212
sS'lines'
p3313
(dp3314
I207
S'    try:'
p3315
sI208
S'        if isinstance(code, types.CodeType):'
p3316
sI209
S'            ccode = code'
p3317
sI210
S'        else:'
p3318
sI211
S'            ccode = compile2(code, layer)'
p3319
sI212
S'        exec ccode in environment'
p3320
sI213
S'    except HTTP:'
p3321
sI214
S'        raise'
p3322
sI215
S'    except RestrictedError:'
p3323
sI216
S'        # do not encapsulate (obfuscate) the original RestrictedError'
p3324
ssS'call'
p3325
S"(code='# coding: utf8\\n\\nEXPERIMENTAL_STUFF = True\\n\\nif EX...m=form)\\n\\nresponse._vars=response._caller(design)\\n', environment={'A': <class 'gluon.html.A'>, 'ALLOW_TOGGLE': 'true', 'A_button': <function A_button>, 'B': <class 'gluon.html.B'>, 'BEAUTIFY': <class 'gluon.html.BEAUTIFY'>, 'BODY': <class 'gluon.html.BODY'>, 'BR': <class 'gluon.html.BR'>, 'BUTTON': <class 'gluon.html.BUTTON'>, 'CAT': <class 'gluon.html.CAT'>, 'CENTER': <class 'gluon.html.CENTER'>, ...}, layer='/opt/smb4manager/applications/admin/controllers/default.py')"
p3326
sS'func'
p3327
S'restricted'
p3328
sa(dp3329
g3304
S'/opt/smb4manager/applications/admin/controllers/default.py'
p3330
sg3306
(dp3331
sg3312
I1787
sg3313
(dp3332
I1776
S'                "Git repo updated with latest application changes.")'
p3333
sI1777
S"            redirect(URL('site'))"
p3334
sI1778
S'        except UnmergedEntriesError:'
p3335
sI1779
S'            session.flash = T("Push failed, there are unmerged entries in the cache. Resolve merge issues manually and try again.")'
p3336
sI1780
S"            redirect(URL('site'))"
p3337
sI1781
S'        except Exception, e:'
p3338
sI1782
S'            session.flash = T('
p3339
sI1783
S'                "Push failed, git exited abnormally. See logs for details.")'
p3340
sI1784
S"            redirect(URL('site'))"
p3341
sI1785
S'    return dict(app=app, form=form)'
p3342
ssg3325
S'()'
p3343
sg3327
S'<module>'
p3344
sa(dp3345
g3304
S'/opt/smb4manager/gluon/globals.py'
p3346
sg3306
(dp3347
S'self'
p3348
S'undefined'
p3349
sS'f'
S'<function design>'
p3350
ssg3312
I188
sg3313
(dp3351
I192
S''
sI183
S'        self.menu = []             # used by the default view layout'
p3352
sI184
S'        self.files = []            # used by web2py_ajax.html'
p3353
sI185
S'        self.generic_patterns = []  # patterns to allow generic views'
p3354
sI186
S"        self.delimiters = ('{{', '}}')"
p3355
sI187
S'        self._vars = None'
p3356
sI188
S'        self._caller = lambda f: f()'
p3357
sI189
S'        self._view_environment = None'
p3358
sI190
S'        self._custom_commit = None'
p3359
sI191
S'        self._custom_rollback = None'
p3360
ssg3325
S'(f=<function design>)'
p3361
sg3327
S'<lambda>'
p3362
sa(dp3363
g3304
S'/opt/smb4manager/applications/admin/controllers/default.py'
p3364
sg3306
(dp3365
S'global read_possible_languages'
p3366
S'<function read_possible_languages>'
p3367
sS').iteritems'
p3368
g3349
sS'langpath'
p3369
S"'/opt/smb4manager/applications/dashboard/languages'"
p3370
ssg3312
I1013
sg3313
(dp3371
I1008
S'    statics.sort()'
p3372
sI1009
S''
sI1010
S'    # Get all languages'
p3373
sI1011
S"    langpath = os.path.join(apath(app, r=request),'languages')"
p3374
sI1012
S'    languages = dict([(lang, info) for lang, info'
p3375
sI1013
S'                      in read_possible_languages(langpath).iteritems()'
p3376
sI1014
S'                      if info[2] != 0])  # info[2] is langfile_mtime:'
p3377
sI1015
S'                                         # get only existed files'
p3378
sI1016
S''
sI1017
S'    #Get crontab'
p3379
ssg3325
S'()'
p3380
sg3327
S'design'
p3381
sa(dp3382
g3304
S'/opt/smb4manager/gluon/languages.py'
p3383
sg3306
(dp3384
S'global read_possible_languages_aux'
p3385
S'<function read_possible_languages_aux>'
p3386
sS'langdir'
p3387
S"'/opt/smb4manager/applications/dashboard/languages/languages'"
p3388
ssg3312
I267
sg3313
(dp3389
I262
S''
sI263
S''
sI264
S'def read_possible_languages(appdir):'
p3390
sI265
S"    langdir = pjoin(appdir, 'languages')"
p3391
sI266
S"    return getcfs('langs:' + langdir, langdir,"
p3392
sI267
S'                  lambda: read_possible_languages_aux(langdir))'
p3393
sI268
S''
sI269
S''
sI270
S'def read_plural_dict_aux(filename):'
p3394
sI271
S"    lang_text = portalocker.read_locked(filename).replace('\\r\\n', '\\n')"
p3395
ssg3325
S"(appdir='/opt/smb4manager/applications/dashboard/languages')"
p3396
sg3327
S'read_possible_languages'
p3397
sa(dp3398
g3304
S'/opt/smb4manager/gluon/cfs.py'
p3399
sg3306
(dp3400
S'filter'
p3401
S'<function <lambda>>'
p3402
sS'builtincallable'
p3403
S'<built-in function callable>'
p3404
ssg3312
I40
sg3313
(dp3405
I35
S'    This is used on Google App Engine since pyc files cannot be saved.'
p3406
sI36
S'    """'
p3407
sI37
S'    try:'
p3408
sI38
S'        t = stat(filename).st_mtime'
p3409
sI39
S'    except OSError:'
p3410
sI40
S"        return filter() if callable(filter) else ''"
p3411
sI41
S'    cfs_lock.acquire()'
p3412
sI42
S'    item = cfs.get(key, None)'
p3413
sI43
S'    cfs_lock.release()'
p3414
sI44
S'    if item and item[0] == t:'
p3415
ssg3325
S"(key='langs:/opt/smb4manager/applications/dashboard/languages/languages', filename='/opt/smb4manager/applications/dashboard/languages/languages', filter=<function <lambda>>)"
p3416
sg3327
S'getcfs'
p3417
sa(dp3418
g3304
S'/opt/smb4manager/gluon/languages.py'
p3419
sg3306
(dp3420
S'global read_possible_languages_aux'
p3421
S'<function read_possible_languages_aux>'
p3422
sS'langdir'
p3423
S"'/opt/smb4manager/applications/dashboard/languages/languages'"
p3424
ssg3312
I267
sg3313
(dp3425
I262
S''
sI263
S''
sI264
S'def read_possible_languages(appdir):'
p3426
sI265
S"    langdir = pjoin(appdir, 'languages')"
p3427
sI266
S"    return getcfs('langs:' + langdir, langdir,"
p3428
sI267
S'                  lambda: read_possible_languages_aux(langdir))'
p3429
sI268
S''
sI269
S''
sI270
S'def read_plural_dict_aux(filename):'
p3430
sI271
S"    lang_text = portalocker.read_locked(filename).replace('\\r\\n', '\\n')"
p3431
ssg3325
S'()'
p3432
sg3327
g3362
sa(dp3433
g3304
S'/opt/smb4manager/gluon/languages.py'
p3434
sg3306
(dp3435
S'global oslistdir'
p3436
S'<built-in function listdir>'
p3437
sS'langdir'
p3438
S"'/opt/smb4manager/applications/dashboard/languages/languages'"
p3439
sS'flist'
p3440
g3349
ssg3312
I231
sg3313
(dp3441
I226
S'                nplurals,        # nplurals for current language'
p3442
sI227
S'                get_plural_id,   # get_plural_id() for current language'
p3443
sI228
S'                construct_plural_form)  # construct_plural_form() for current language'
p3444
sI229
S''
sI230
S'    plurals = {}'
p3445
sI231
S'    flist = oslistdir(langdir)'
p3446
sI232
S'    # scan languages directory for plural dict files:'
p3447
sI233
S'    for pname in flist:'
p3448
sI234
S'        if regex_plural_file.match(pname):'
p3449
sI235
S'            plurals[pname[7:-3]] = (pname,'
p3450
ssg3325
S"(langdir='/opt/smb4manager/applications/dashboard/languages/languages')"
p3451
sg3327
S'read_possible_languages_aux'
p3452
sasS'pyver'
p3453
S'Python 2.7.3: /usr/bin/python'
p3454
sS'session'
p3455
g62
(g63
g64
NtRp3456
(dp3457
g67
(dp3458
sg69
(lp3459
g62
(g71
g64
NtRp3460
(dp3461
g67
(dp3462
g75
I5
ssg76
Nsg69
(lp3463
g62
(g78
g64
NtRp3464
(dp3465
g67
(dp3466
sg76
g3460
sg69
(lp3467
g62
(g83
g64
NtRp3468
(dp3469
g67
(dp3470
g87
g88
ssg76
g3464
sg69
(lp3471
S'authorized'
p3472
asbag62
(g83
g64
NtRp3473
(dp3474
g67
(dp3475
g94
g95
ssg76
g3464
sg69
(lp3476
S':'
asbag62
(g83
g64
NtRp3477
(dp3478
g67
(dp3479
sg76
g3464
sg69
(lp3480
g62
(g63
g64
NtRp3481
(dp3482
g67
(dp3483
g75
I5
ssg76
g3477
sg69
(lp3484
g1852
asbasbasbag62
(g78
g64
NtRp3485
(dp3486
g67
(dp3487
sg76
g3460
sg69
(lp3488
g62
(g83
g64
NtRp3489
(dp3490
g67
(dp3491
g87
g88
ssg76
g3485
sg69
(lp3492
S'check_version'
p3493
asbag62
(g83
g64
NtRp3494
(dp3495
g67
(dp3496
g94
g95
ssg76
g3485
sg69
(lp3497
S':'
asbag62
(g83
g64
NtRp3498
(dp3499
g67
(dp3500
sg76
g3485
sg69
(lp3501
g62
(g63
g64
NtRp3502
(dp3503
g67
(dp3504
g75
I5
ssg76
g3498
sg69
(lp3505
g105
asbasbasbag62
(g78
g64
NtRp3506
(dp3507
g67
(dp3508
sg76
g3460
sg69
(lp3509
g62
(g83
g64
NtRp3510
(dp3511
g67
(dp3512
g87
g88
ssg76
g3506
sg69
(lp3513
S'is_mobile'
p3514
asbag62
(g83
g64
NtRp3515
(dp3516
g67
(dp3517
g94
g95
ssg76
g3506
sg69
(lp3518
S':'
asbag62
(g83
g64
NtRp3519
(dp3520
g67
(dp3521
sg76
g3506
sg69
(lp3522
g62
(g63
g64
NtRp3523
(dp3524
g67
(dp3525
g75
I5
ssg76
g3519
sg69
(lp3526
S'auto'
p3527
asbasbasbag62
(g78
g64
NtRp3528
(dp3529
g67
(dp3530
sg76
g3460
sg69
(lp3531
g62
(g83
g64
NtRp3532
(dp3533
g67
(dp3534
g87
g88
ssg76
g3528
sg69
(lp3535
S'last_time'
p3536
asbag62
(g83
g64
NtRp3537
(dp3538
g67
(dp3539
g94
g95
ssg76
g3528
sg69
(lp3540
S':'
asbag62
(g83
g64
NtRp3541
(dp3542
g67
(dp3543
sg76
g3528
sg69
(lp3544
g62
(g63
g64
NtRp3545
(dp3546
g67
(dp3547
g75
I5
ssg76
g3541
sg69
(lp3548
S'1359385838.963719'
p3549
asbasbasbag62
(g78
g64
NtRp3550
(dp3551
g67
(dp3552
sg76
g3460
sg69
(lp3553
g62
(g83
g64
NtRp3554
(dp3555
g67
(dp3556
g87
g88
ssg76
g3550
sg69
(lp3557
S'pam_user'
p3558
asbag62
(g83
g64
NtRp3559
(dp3560
g67
(dp3561
g94
g95
ssg76
g3550
sg69
(lp3562
S':'
asbag62
(g83
g64
NtRp3563
(dp3564
g67
(dp3565
sg76
g3550
sg69
(lp3566
g62
(g63
g64
NtRp3567
(dp3568
g67
(dp3569
g75
I5
ssg76
g3563
sg69
(lp3570
S'None'
p3571
asbasbasbag62
(g78
g64
NtRp3572
(dp3573
g67
(dp3574
sg76
g3460
sg69
(lp3575
g62
(g83
g64
NtRp3576
(dp3577
g67
(dp3578
g87
g88
ssg76
g3572
sg69
(lp3579
S'token'
p3580
asbag62
(g83
g64
NtRp3581
(dp3582
g67
(dp3583
g94
g95
ssg76
g3572
sg69
(lp3584
S':'
asbag62
(g83
g64
NtRp3585
(dp3586
g67
(dp3587
sg76
g3572
sg69
(lp3588
g62
(g63
g64
NtRp3589
(dp3590
g67
(dp3591
g75
I5
ssg76
g3585
sg69
(lp3592
S'f08e1d27-de12-471e-b7c5-5c90ad92c01c'
p3593
asbasbasbasbasbsS'etype'
p3594
S"<type 'exceptions.OSError'>"
p3595
sS'date'
p3596
S'Mon Jan 28 13:10:38 2013'
p3597
sS'response'
p3598
g62
(g63
g64
NtRp3599
(dp3600
g67
(dp3601
sg69
(lp3602
g62
(g71
g64
NtRp3603
(dp3604
g67
(dp3605
g75
I5
ssg76
Nsg69
(lp3606
g62
(g78
g64
NtRp3607
(dp3608
g67
(dp3609
sg76
g3603
sg69
(lp3610
g62
(g83
g64
NtRp3611
(dp3612
g67
(dp3613
g87
g88
ssg76
g3607
sg69
(lp3614
g173
asbag62
(g83
g64
NtRp3615
(dp3616
g67
(dp3617
g94
g95
ssg76
g3607
sg69
(lp3618
S':'
asbag62
(g83
g64
NtRp3619
(dp3620
g67
(dp3621
sg76
g3607
sg69
(lp3622
g62
(g63
g64
NtRp3623
(dp3624
g67
(dp3625
g75
I5
ssg76
g3619
sg69
(lp3626
S'<cStringIO.StringO object at 0x8eef060>'
p3627
asbasbasbag62
(g78
g64
NtRp3628
(dp3629
g67
(dp3630
sg76
g3603
sg69
(lp3631
g62
(g83
g64
NtRp3632
(dp3633
g67
(dp3634
g87
g88
ssg76
g3628
sg69
(lp3635
g261
asbag62
(g83
g64
NtRp3636
(dp3637
g67
(dp3638
g94
g95
ssg76
g3628
sg69
(lp3639
S':'
asbag62
(g83
g64
NtRp3640
(dp3641
g67
(dp3642
sg76
g3628
sg69
(lp3643
g62
(g63
g64
NtRp3644
(dp3645
g67
(dp3646
g75
I5
ssg76
g3640
sg69
(lp3647
g62
(g71
g64
NtRp3648
(dp3649
g67
(dp3650
g75
I4
ssg76
Nsg69
(lp3651
g62
(g78
g64
NtRp3652
(dp3653
g67
(dp3654
sg76
g3648
sg69
(lp3655
g62
(g83
g64
NtRp3656
(dp3657
g67
(dp3658
g87
g88
ssg76
g3652
sg69
(lp3659
S'session_id_admin'
p3660
asbag62
(g83
g64
NtRp3661
(dp3662
g67
(dp3663
g94
g95
ssg76
g3652
sg69
(lp3664
S':'
asbag62
(g83
g64
NtRp3665
(dp3666
g67
(dp3667
sg76
g3652
sg69
(lp3668
g62
(g63
g64
NtRp3669
(dp3670
g67
(dp3671
g75
I4
ssg76
g3665
sg69
(lp3672
g493
ag62
(g71
g64
NtRp3673
(dp3674
g67
(dp3675
g75
I3
ssg76
Nsg69
(lp3676
g62
(g78
g64
NtRp3677
(dp3678
g67
(dp3679
sg76
g3673
sg69
(lp3680
g62
(g83
g64
NtRp3681
(dp3682
g67
(dp3683
g87
g88
ssg76
g3677
sg69
(lp3684
g312
asbag62
(g83
g64
NtRp3685
(dp3686
g67
(dp3687
g94
g95
ssg76
g3677
sg69
(lp3688
S':'
asbag62
(g83
g64
NtRp3689
(dp3690
g67
(dp3691
sg76
g3677
sg69
(lp3692
g62
(g63
g64
NtRp3693
(dp3694
g67
(dp3695
g75
I3
ssg76
g3689
sg69
(lp3696
S''
asbasbasbag62
(g78
g64
NtRp3697
(dp3698
g67
(dp3699
sg76
g3673
sg69
(lp3700
g62
(g83
g64
NtRp3701
(dp3702
g67
(dp3703
g87
g88
ssg76
g3697
sg69
(lp3704
g333
asbag62
(g83
g64
NtRp3705
(dp3706
g67
(dp3707
g94
g95
ssg76
g3697
sg69
(lp3708
S':'
asbag62
(g83
g64
NtRp3709
(dp3710
g67
(dp3711
sg76
g3697
sg69
(lp3712
g62
(g63
g64
NtRp3713
(dp3714
g67
(dp3715
g75
I3
ssg76
g3709
sg69
(lp3716
S''
asbasbasbag62
(g78
g64
NtRp3717
(dp3718
g67
(dp3719
sg76
g3673
sg69
(lp3720
g62
(g83
g64
NtRp3721
(dp3722
g67
(dp3723
g87
g88
ssg76
g3717
sg69
(lp3724
g354
asbag62
(g83
g64
NtRp3725
(dp3726
g67
(dp3727
g94
g95
ssg76
g3717
sg69
(lp3728
S':'
asbag62
(g83
g64
NtRp3729
(dp3730
g67
(dp3731
sg76
g3717
sg69
(lp3732
g62
(g63
g64
NtRp3733
(dp3734
g67
(dp3735
g75
I3
ssg76
g3729
sg69
(lp3736
S''
asbasbasbag62
(g78
g64
NtRp3737
(dp3738
g67
(dp3739
sg76
g3673
sg69
(lp3740
g62
(g83
g64
NtRp3741
(dp3742
g67
(dp3743
g87
g88
ssg76
g3737
sg69
(lp3744
g375
asbag62
(g83
g64
NtRp3745
(dp3746
g67
(dp3747
g94
g95
ssg76
g3737
sg69
(lp3748
S':'
asbag62
(g83
g64
NtRp3749
(dp3750
g67
(dp3751
sg76
g3737
sg69
(lp3752
g62
(g63
g64
NtRp3753
(dp3754
g67
(dp3755
g75
I3
ssg76
g3749
sg69
(lp3756
S''
asbasbasbag62
(g78
g64
NtRp3757
(dp3758
g67
(dp3759
sg76
g3673
sg69
(lp3760
g62
(g83
g64
NtRp3761
(dp3762
g67
(dp3763
g87
g88
ssg76
g3757
sg69
(lp3764
g396
asbag62
(g83
g64
NtRp3765
(dp3766
g67
(dp3767
g94
g95
ssg76
g3757
sg69
(lp3768
S':'
asbag62
(g83
g64
NtRp3769
(dp3770
g67
(dp3771
sg76
g3757
sg69
(lp3772
g62
(g63
g64
NtRp3773
(dp3774
g67
(dp3775
g75
I3
ssg76
g3769
sg69
(lp3776
S''
asbasbasbag62
(g78
g64
NtRp3777
(dp3778
g67
(dp3779
sg76
g3673
sg69
(lp3780
g62
(g83
g64
NtRp3781
(dp3782
g67
(dp3783
g87
g88
ssg76
g3777
sg69
(lp3784
g417
asbag62
(g83
g64
NtRp3785
(dp3786
g67
(dp3787
g94
g95
ssg76
g3777
sg69
(lp3788
S':'
asbag62
(g83
g64
NtRp3789
(dp3790
g67
(dp3791
sg76
g3777
sg69
(lp3792
g62
(g63
g64
NtRp3793
(dp3794
g67
(dp3795
g75
I3
ssg76
g3789
sg69
(lp3796
S'/'
asbasbasbag62
(g78
g64
NtRp3797
(dp3798
g67
(dp3799
sg76
g3673
sg69
(lp3800
g62
(g83
g64
NtRp3801
(dp3802
g67
(dp3803
g87
g88
ssg76
g3797
sg69
(lp3804
g438
asbag62
(g83
g64
NtRp3805
(dp3806
g67
(dp3807
g94
g95
ssg76
g3797
sg69
(lp3808
S':'
asbag62
(g83
g64
NtRp3809
(dp3810
g67
(dp3811
sg76
g3797
sg69
(lp3812
g62
(g63
g64
NtRp3813
(dp3814
g67
(dp3815
g75
I3
ssg76
g3809
sg69
(lp3816
S''
asbasbasbag62
(g78
g64
NtRp3817
(dp3818
g67
(dp3819
sg76
g3673
sg69
(lp3820
g62
(g83
g64
NtRp3821
(dp3822
g67
(dp3823
g87
g88
ssg76
g3817
sg69
(lp3824
g459
asbag62
(g83
g64
NtRp3825
(dp3826
g67
(dp3827
g94
g95
ssg76
g3817
sg69
(lp3828
S':'
asbag62
(g83
g64
NtRp3829
(dp3830
g67
(dp3831
sg76
g3817
sg69
(lp3832
g62
(g63
g64
NtRp3833
(dp3834
g67
(dp3835
g75
I3
ssg76
g3829
sg69
(lp3836
S''
asbasbasbasbasbasbasbasbasbasbasbag62
(g78
g64
NtRp3837
(dp3838
g67
(dp3839
sg76
g3603
sg69
(lp3840
g62
(g83
g64
NtRp3841
(dp3842
g67
(dp3843
g87
g88
ssg76
g3837
sg69
(lp3844
S'delimiters'
p3845
asbag62
(g83
g64
NtRp3846
(dp3847
g67
(dp3848
g94
g95
ssg76
g3837
sg69
(lp3849
S':'
asbag62
(g83
g64
NtRp3850
(dp3851
g67
(dp3852
sg76
g3837
sg69
(lp3853
g62
(g63
g64
NtRp3854
(dp3855
g67
(dp3856
g75
I5
ssg76
g3850
sg69
(lp3857
g62
(g71
g64
NtRp3858
(dp3859
g67
(dp3860
g75
I4
ssg76
Nsg69
(lp3861
g62
(g78
g64
NtRp3862
(dp3863
g67
(dp3864
sg76
g3858
sg69
(lp3865
g62
(g83
g64
NtRp3866
(dp3867
g67
(dp3868
sg76
g3862
sg69
(lp3869
g62
(g63
g64
NtRp3870
(dp3871
g67
(dp3872
g75
I4
ssg76
g3866
sg69
(lp3873
S'{{'
p3874
asbasbasbag62
(g78
g64
NtRp3875
(dp3876
g67
(dp3877
sg76
g3858
sg69
(lp3878
g62
(g83
g64
NtRp3879
(dp3880
g67
(dp3881
sg76
g3875
sg69
(lp3882
g62
(g63
g64
NtRp3883
(dp3884
g67
(dp3885
g75
I4
ssg76
g3879
sg69
(lp3886
S'}}'
p3887
asbasbasbasbasbasbasbag62
(g78
g64
NtRp3888
(dp3889
g67
(dp3890
sg76
g3603
sg69
(lp3891
g62
(g83
g64
NtRp3892
(dp3893
g67
(dp3894
g87
g88
ssg76
g3888
sg69
(lp3895
S'files'
p3896
asbag62
(g83
g64
NtRp3897
(dp3898
g67
(dp3899
g94
g95
ssg76
g3888
sg69
(lp3900
S':'
asbag62
(g83
g64
NtRp3901
(dp3902
g67
(dp3903
sg76
g3888
sg69
(lp3904
g62
(g63
g64
NtRp3905
(dp3906
g67
(dp3907
g75
I5
ssg76
g3901
sg69
(lp3908
g62
(g71
g64
NtRp3909
(dp3910
g67
(dp3911
g75
I4
ssg76
Nsg69
(lp3912
g62
(g78
g64
NtRp3913
(dp3914
g67
(dp3915
sg76
g3909
sg69
(lp3916
g62
(g83
g64
NtRp3917
(dp3918
g67
(dp3919
sg76
g3913
sg69
(lp3920
g62
(g63
g64
NtRp3921
(dp3922
g67
(dp3923
g75
I4
ssg76
g3917
sg69
(lp3924
S'/admin/static/plugin_multiselect/jquery.multi-select.js'
p3925
asbasbasbag62
(g78
g64
NtRp3926
(dp3927
g67
(dp3928
sg76
g3909
sg69
(lp3929
g62
(g83
g64
NtRp3930
(dp3931
g67
(dp3932
sg76
g3926
sg69
(lp3933
g62
(g63
g64
NtRp3934
(dp3935
g67
(dp3936
g75
I4
ssg76
g3930
sg69
(lp3937
S'/admin/static/plugin_multiselect/multi-select.css'
p3938
asbasbasbag62
(g78
g64
NtRp3939
(dp3940
g67
(dp3941
sg76
g3909
sg69
(lp3942
g62
(g83
g64
NtRp3943
(dp3944
g67
(dp3945
sg76
g3939
sg69
(lp3946
g62
(g63
g64
NtRp3947
(dp3948
g67
(dp3949
g75
I4
ssg76
g3943
sg69
(lp3950
S'/admin/static/plugin_multiselect/start.js'
p3951
asbasbasbasbasbasbasbag62
(g78
g64
NtRp3952
(dp3953
g67
(dp3954
sg76
g3603
sg69
(lp3955
g62
(g83
g64
NtRp3956
(dp3957
g67
(dp3958
g87
g88
ssg76
g3952
sg69
(lp3959
S'flash'
p3960
asbag62
(g83
g64
NtRp3961
(dp3962
g67
(dp3963
g94
g95
ssg76
g3952
sg69
(lp3964
S':'
asbag62
(g83
g64
NtRp3965
(dp3966
g67
(dp3967
sg76
g3952
sg69
(lp3968
g62
(g63
g64
NtRp3969
(dp3970
g67
(dp3971
g75
I5
ssg76
g3965
sg69
(lp3972
S''
asbasbasbag62
(g78
g64
NtRp3973
(dp3974
g67
(dp3975
sg76
g3603
sg69
(lp3976
g62
(g83
g64
NtRp3977
(dp3978
g67
(dp3979
g87
g88
ssg76
g3973
sg69
(lp3980
S'generic_patterns'
p3981
asbag62
(g83
g64
NtRp3982
(dp3983
g67
(dp3984
g94
g95
ssg76
g3973
sg69
(lp3985
S':'
asbag62
(g83
g64
NtRp3986
(dp3987
g67
(dp3988
sg76
g3973
sg69
(lp3989
g62
(g63
g64
NtRp3990
(dp3991
g67
(dp3992
g75
I5
ssg76
g3986
sg69
(lp3993
g62
(g71
g64
NtRp3994
(dp3995
g67
(dp3996
g75
I4
ssg76
Nsg69
(lp3997
sbasbasbasbag62
(g78
g64
NtRp3998
(dp3999
g67
(dp4000
sg76
g3603
sg69
(lp4001
g62
(g83
g64
NtRp4002
(dp4003
g67
(dp4004
g87
g88
ssg76
g3998
sg69
(lp4005
S'headers'
p4006
asbag62
(g83
g64
NtRp4007
(dp4008
g67
(dp4009
g94
g95
ssg76
g3998
sg69
(lp4010
S':'
asbag62
(g83
g64
NtRp4011
(dp4012
g67
(dp4013
sg76
g3998
sg69
(lp4014
g62
(g63
g64
NtRp4015
(dp4016
g67
(dp4017
g75
I5
ssg76
g4011
sg69
(lp4018
g62
(g71
g64
NtRp4019
(dp4020
g67
(dp4021
g75
I4
ssg76
Nsg69
(lp4022
g62
(g78
g64
NtRp4023
(dp4024
g67
(dp4025
sg76
g4019
sg69
(lp4026
g62
(g83
g64
NtRp4027
(dp4028
g67
(dp4029
g87
g88
ssg76
g4023
sg69
(lp4030
S'X-Powered-By'
p4031
asbag62
(g83
g64
NtRp4032
(dp4033
g67
(dp4034
g94
g95
ssg76
g4023
sg69
(lp4035
S':'
asbag62
(g83
g64
NtRp4036
(dp4037
g67
(dp4038
sg76
g4023
sg69
(lp4039
g62
(g63
g64
NtRp4040
(dp4041
g67
(dp4042
g75
I4
ssg76
g4036
sg69
(lp4043
S'web2py'
p4044
asbasbasbasbasbasbasbag62
(g78
g64
NtRp4045
(dp4046
g67
(dp4047
sg76
g3603
sg69
(lp4048
g62
(g83
g64
NtRp4049
(dp4050
g67
(dp4051
g87
g88
ssg76
g4045
sg69
(lp4052
S'menu'
p4053
asbag62
(g83
g64
NtRp4054
(dp4055
g67
(dp4056
g94
g95
ssg76
g4045
sg69
(lp4057
S':'
asbag62
(g83
g64
NtRp4058
(dp4059
g67
(dp4060
sg76
g4045
sg69
(lp4061
g62
(g63
g64
NtRp4062
(dp4063
g67
(dp4064
g75
I5
ssg76
g4058
sg69
(lp4065
g62
(g71
g64
NtRp4066
(dp4067
g67
(dp4068
g75
I4
ssg76
Nsg69
(lp4069
g62
(g78
g64
NtRp4070
(dp4071
g67
(dp4072
sg76
g4066
sg69
(lp4073
g62
(g83
g64
NtRp4074
(dp4075
g67
(dp4076
sg76
g4070
sg69
(lp4077
g62
(g63
g64
NtRp4078
(dp4079
g67
(dp4080
g75
I4
ssg76
g4074
sg69
(lp4081
g62
(g71
g64
NtRp4082
(dp4083
g67
(dp4084
g75
I3
ssg76
Nsg69
(lp4085
g62
(g78
g64
NtRp4086
(dp4087
g67
(dp4088
sg76
g4082
sg69
(lp4089
g62
(g83
g64
NtRp4090
(dp4091
g67
(dp4092
sg76
g4086
sg69
(lp4093
g62
(g63
g64
NtRp4094
(dp4095
g67
(dp4096
g75
I3
ssg76
g4090
sg69
(lp4097
cgluon.languages
lazyT_unpickle
p4098
(S's\x04\x00\x00\x00Site'
tRp4099
asbasbasbag62
(g78
g64
NtRp4100
(dp4101
g67
(dp4102
sg76
g4082
sg69
(lp4103
g62
(g83
g64
NtRp4104
(dp4105
g67
(dp4106
sg76
g4100
sg69
(lp4107
g62
(g63
g64
NtRp4108
(dp4109
g67
(dp4110
g75
I3
ssg76
g4104
sg69
(lp4111
g105
asbasbasbag62
(g78
g64
NtRp4112
(dp4113
g67
(dp4114
sg76
g4082
sg69
(lp4115
g62
(g83
g64
NtRp4116
(dp4117
g67
(dp4118
sg76
g4112
sg69
(lp4119
g62
(g63
g64
NtRp4120
(dp4121
g67
(dp4122
g75
I3
ssg76
g4116
sg69
(lp4123
S'/admin/site'
p4124
asbasbasbasbasbasbasbag62
(g78
g64
NtRp4125
(dp4126
g67
(dp4127
sg76
g4066
sg69
(lp4128
g62
(g83
g64
NtRp4129
(dp4130
g67
(dp4131
sg76
g4125
sg69
(lp4132
g62
(g63
g64
NtRp4133
(dp4134
g67
(dp4135
g75
I4
ssg76
g4129
sg69
(lp4136
g62
(g71
g64
NtRp4137
(dp4138
g67
(dp4139
g75
I3
ssg76
Nsg69
(lp4140
g62
(g78
g64
NtRp4141
(dp4142
g67
(dp4143
sg76
g4137
sg69
(lp4144
g62
(g83
g64
NtRp4145
(dp4146
g67
(dp4147
sg76
g4141
sg69
(lp4148
g62
(g63
g64
NtRp4149
(dp4150
g67
(dp4151
g75
I3
ssg76
g4145
sg69
(lp4152
g4098
(S's\x04\x00\x00\x00Edit'
tRp4153
asbasbasbag62
(g78
g64
NtRp4154
(dp4155
g67
(dp4156
sg76
g4137
sg69
(lp4157
g62
(g83
g64
NtRp4158
(dp4159
g67
(dp4160
sg76
g4154
sg69
(lp4161
g62
(g63
g64
NtRp4162
(dp4163
g67
(dp4164
g75
I3
ssg76
g4158
sg69
(lp4165
g1852
asbasbasbag62
(g78
g64
NtRp4166
(dp4167
g67
(dp4168
sg76
g4137
sg69
(lp4169
g62
(g83
g64
NtRp4170
(dp4171
g67
(dp4172
sg76
g4166
sg69
(lp4173
g62
(g63
g64
NtRp4174
(dp4175
g67
(dp4176
g75
I3
ssg76
g4170
sg69
(lp4177
S'/admin/design/dashboard'
p4178
asbasbasbasbasbasbasbag62
(g78
g64
NtRp4179
(dp4180
g67
(dp4181
sg76
g4066
sg69
(lp4182
g62
(g83
g64
NtRp4183
(dp4184
g67
(dp4185
sg76
g4179
sg69
(lp4186
g62
(g63
g64
NtRp4187
(dp4188
g67
(dp4189
g75
I4
ssg76
g4183
sg69
(lp4190
g62
(g71
g64
NtRp4191
(dp4192
g67
(dp4193
g75
I3
ssg76
Nsg69
(lp4194
g62
(g78
g64
NtRp4195
(dp4196
g67
(dp4197
sg76
g4191
sg69
(lp4198
g62
(g83
g64
NtRp4199
(dp4200
g67
(dp4201
sg76
g4195
sg69
(lp4202
g62
(g63
g64
NtRp4203
(dp4204
g67
(dp4205
g75
I3
ssg76
g4199
sg69
(lp4206
g4098
(S's\x05\x00\x00\x00About'
tRp4207
asbasbasbag62
(g78
g64
NtRp4208
(dp4209
g67
(dp4210
sg76
g4191
sg69
(lp4211
g62
(g83
g64
NtRp4212
(dp4213
g67
(dp4214
sg76
g4208
sg69
(lp4215
g62
(g63
g64
NtRp4216
(dp4217
g67
(dp4218
g75
I3
ssg76
g4212
sg69
(lp4219
g105
asbasbasbag62
(g78
g64
NtRp4220
(dp4221
g67
(dp4222
sg76
g4191
sg69
(lp4223
g62
(g83
g64
NtRp4224
(dp4225
g67
(dp4226
sg76
g4220
sg69
(lp4227
g62
(g63
g64
NtRp4228
(dp4229
g67
(dp4230
g75
I3
ssg76
g4224
sg69
(lp4231
S'/admin/about/dashboard'
p4232
asbasbasbasbasbasbasbag62
(g78
g64
NtRp4233
(dp4234
g67
(dp4235
sg76
g4066
sg69
(lp4236
g62
(g83
g64
NtRp4237
(dp4238
g67
(dp4239
sg76
g4233
sg69
(lp4240
g62
(g63
g64
NtRp4241
(dp4242
g67
(dp4243
g75
I4
ssg76
g4237
sg69
(lp4244
g62
(g71
g64
NtRp4245
(dp4246
g67
(dp4247
g75
I3
ssg76
Nsg69
(lp4248
g62
(g78
g64
NtRp4249
(dp4250
g67
(dp4251
sg76
g4245
sg69
(lp4252
g62
(g83
g64
NtRp4253
(dp4254
g67
(dp4255
sg76
g4249
sg69
(lp4256
g62
(g63
g64
NtRp4257
(dp4258
g67
(dp4259
g75
I3
ssg76
g4253
sg69
(lp4260
g4098
(S's\x06\x00\x00\x00Errors'
tRp4261
asbasbasbag62
(g78
g64
NtRp4262
(dp4263
g67
(dp4264
sg76
g4245
sg69
(lp4265
g62
(g83
g64
NtRp4266
(dp4267
g67
(dp4268
sg76
g4262
sg69
(lp4269
g62
(g63
g64
NtRp4270
(dp4271
g67
(dp4272
g75
I3
ssg76
g4266
sg69
(lp4273
g105
asbasbasbag62
(g78
g64
NtRp4274
(dp4275
g67
(dp4276
sg76
g4245
sg69
(lp4277
g62
(g83
g64
NtRp4278
(dp4279
g67
(dp4280
sg76
g4274
sg69
(lp4281
g62
(g63
g64
NtRp4282
(dp4283
g67
(dp4284
g75
I3
ssg76
g4278
sg69
(lp4285
S'/admin/errors/dashboard'
p4286
asbasbasbasbasbasbasbag62
(g78
g64
NtRp4287
(dp4288
g67
(dp4289
sg76
g4066
sg69
(lp4290
g62
(g83
g64
NtRp4291
(dp4292
g67
(dp4293
sg76
g4287
sg69
(lp4294
g62
(g63
g64
NtRp4295
(dp4296
g67
(dp4297
g75
I4
ssg76
g4291
sg69
(lp4298
g62
(g71
g64
NtRp4299
(dp4300
g67
(dp4301
g75
I3
ssg76
Nsg69
(lp4302
g62
(g78
g64
NtRp4303
(dp4304
g67
(dp4305
sg76
g4299
sg69
(lp4306
g62
(g83
g64
NtRp4307
(dp4308
g67
(dp4309
sg76
g4303
sg69
(lp4310
g62
(g63
g64
NtRp4311
(dp4312
g67
(dp4313
g75
I3
ssg76
g4307
sg69
(lp4314
g4098
(S's\n\x00\x00\x00Versioning'
tRp4315
asbasbasbag62
(g78
g64
NtRp4316
(dp4317
g67
(dp4318
sg76
g4299
sg69
(lp4319
g62
(g83
g64
NtRp4320
(dp4321
g67
(dp4322
sg76
g4316
sg69
(lp4323
g62
(g63
g64
NtRp4324
(dp4325
g67
(dp4326
g75
I3
ssg76
g4320
sg69
(lp4327
g105
asbasbasbag62
(g78
g64
NtRp4328
(dp4329
g67
(dp4330
sg76
g4299
sg69
(lp4331
g62
(g83
g64
NtRp4332
(dp4333
g67
(dp4334
sg76
g4328
sg69
(lp4335
g62
(g63
g64
NtRp4336
(dp4337
g67
(dp4338
g75
I3
ssg76
g4332
sg69
(lp4339
S'/admin/mercurial/commit/dashboard'
p4340
asbasbasbasbasbasbasbag62
(g78
g64
NtRp4341
(dp4342
g67
(dp4343
sg76
g4066
sg69
(lp4344
g62
(g83
g64
NtRp4345
(dp4346
g67
(dp4347
sg76
g4341
sg69
(lp4348
g62
(g63
g64
NtRp4349
(dp4350
g67
(dp4351
g75
I4
ssg76
g4345
sg69
(lp4352
g62
(g71
g64
NtRp4353
(dp4354
g67
(dp4355
g75
I3
ssg76
Nsg69
(lp4356
g62
(g78
g64
NtRp4357
(dp4358
g67
(dp4359
sg76
g4353
sg69
(lp4360
g62
(g83
g64
NtRp4361
(dp4362
g67
(dp4363
sg76
g4357
sg69
(lp4364
g62
(g63
g64
NtRp4365
(dp4366
g67
(dp4367
g75
I3
ssg76
g4361
sg69
(lp4368
g4098
(S's\x06\x00\x00\x00Logout'
tRp4369
asbasbasbag62
(g78
g64
NtRp4370
(dp4371
g67
(dp4372
sg76
g4353
sg69
(lp4373
g62
(g83
g64
NtRp4374
(dp4375
g67
(dp4376
sg76
g4370
sg69
(lp4377
g62
(g63
g64
NtRp4378
(dp4379
g67
(dp4380
g75
I3
ssg76
g4374
sg69
(lp4381
g105
asbasbasbag62
(g78
g64
NtRp4382
(dp4383
g67
(dp4384
sg76
g4353
sg69
(lp4385
g62
(g83
g64
NtRp4386
(dp4387
g67
(dp4388
sg76
g4382
sg69
(lp4389
g62
(g63
g64
NtRp4390
(dp4391
g67
(dp4392
g75
I3
ssg76
g4386
sg69
(lp4393
S'/admin/logout'
p4394
asbasbasbasbasbasbasbag62
(g78
g64
NtRp4395
(dp4396
g67
(dp4397
sg76
g4066
sg69
(lp4398
g62
(g83
g64
NtRp4399
(dp4400
g67
(dp4401
sg76
g4395
sg69
(lp4402
g62
(g63
g64
NtRp4403
(dp4404
g67
(dp4405
g75
I4
ssg76
g4399
sg69
(lp4406
g62
(g71
g64
NtRp4407
(dp4408
g67
(dp4409
g75
I3
ssg76
Nsg69
(lp4410
g62
(g78
g64
NtRp4411
(dp4412
g67
(dp4413
sg76
g4407
sg69
(lp4414
g62
(g83
g64
NtRp4415
(dp4416
g67
(dp4417
sg76
g4411
sg69
(lp4418
g62
(g63
g64
NtRp4419
(dp4420
g67
(dp4421
g75
I3
ssg76
g4415
sg69
(lp4422
g4098
(S's\x05\x00\x00\x00Debug'
tRp4423
asbasbasbag62
(g78
g64
NtRp4424
(dp4425
g67
(dp4426
sg76
g4407
sg69
(lp4427
g62
(g83
g64
NtRp4428
(dp4429
g67
(dp4430
sg76
g4424
sg69
(lp4431
g62
(g63
g64
NtRp4432
(dp4433
g67
(dp4434
g75
I3
ssg76
g4428
sg69
(lp4435
g105
asbasbasbag62
(g78
g64
NtRp4436
(dp4437
g67
(dp4438
sg76
g4407
sg69
(lp4439
g62
(g83
g64
NtRp4440
(dp4441
g67
(dp4442
sg76
g4436
sg69
(lp4443
g62
(g63
g64
NtRp4444
(dp4445
g67
(dp4446
g75
I3
ssg76
g4440
sg69
(lp4447
S'/admin/debug/interact'
p4448
asbasbasbasbasbasbasbag62
(g78
g64
NtRp4449
(dp4450
g67
(dp4451
sg76
g4066
sg69
(lp4452
g62
(g83
g64
NtRp4453
(dp4454
g67
(dp4455
sg76
g4449
sg69
(lp4456
g62
(g63
g64
NtRp4457
(dp4458
g67
(dp4459
g75
I4
ssg76
g4453
sg69
(lp4460
g62
(g71
g64
NtRp4461
(dp4462
g67
(dp4463
g75
I3
ssg76
Nsg69
(lp4464
g62
(g78
g64
NtRp4465
(dp4466
g67
(dp4467
sg76
g4461
sg69
(lp4468
g62
(g83
g64
NtRp4469
(dp4470
g67
(dp4471
sg76
g4465
sg69
(lp4472
g62
(g63
g64
NtRp4473
(dp4474
g67
(dp4475
g75
I3
ssg76
g4469
sg69
(lp4476
g4098
(S's\x04\x00\x00\x00Help'
tRp4477
asbasbasbag62
(g78
g64
NtRp4478
(dp4479
g67
(dp4480
sg76
g4461
sg69
(lp4481
g62
(g83
g64
NtRp4482
(dp4483
g67
(dp4484
sg76
g4478
sg69
(lp4485
g62
(g63
g64
NtRp4486
(dp4487
g67
(dp4488
g75
I3
ssg76
g4482
sg69
(lp4489
g105
asbasbasbag62
(g78
g64
NtRp4490
(dp4491
g67
(dp4492
sg76
g4461
sg69
(lp4493
g62
(g83
g64
NtRp4494
(dp4495
g67
(dp4496
sg76
g4490
sg69
(lp4497
g62
(g63
g64
NtRp4498
(dp4499
g67
(dp4500
g75
I3
ssg76
g4494
sg69
(lp4501
S'http://web2py.com/examples'
p4502
asbasbasbasbasbasbasbasbasbasbasbag62
(g78
g64
NtRp4503
(dp4504
g67
(dp4505
sg76
g3603
sg69
(lp4506
g62
(g83
g64
NtRp4507
(dp4508
g67
(dp4509
g87
g88
ssg76
g4503
sg69
(lp4510
S'meta'
p4511
asbag62
(g83
g64
NtRp4512
(dp4513
g67
(dp4514
g94
g95
ssg76
g4503
sg69
(lp4515
S':'
asbag62
(g83
g64
NtRp4516
(dp4517
g67
(dp4518
sg76
g4503
sg69
(lp4519
g62
(g63
g64
NtRp4520
(dp4521
g67
(dp4522
g75
I5
ssg76
g4516
sg69
(lp4523
g62
(g71
g64
NtRp4524
(dp4525
g67
(dp4526
g75
I4
ssg76
Nsg69
(lp4527
sbasbasbasbag62
(g78
g64
NtRp4528
(dp4529
g67
(dp4530
sg76
g3603
sg69
(lp4531
g62
(g83
g64
NtRp4532
(dp4533
g67
(dp4534
g87
g88
ssg76
g4528
sg69
(lp4535
S'models_to_run'
p4536
asbag62
(g83
g64
NtRp4537
(dp4538
g67
(dp4539
g94
g95
ssg76
g4528
sg69
(lp4540
S':'
asbag62
(g83
g64
NtRp4541
(dp4542
g67
(dp4543
sg76
g4528
sg69
(lp4544
g62
(g63
g64
NtRp4545
(dp4546
g67
(dp4547
g75
I5
ssg76
g4541
sg69
(lp4548
g62
(g71
g64
NtRp4549
(dp4550
g67
(dp4551
g75
I4
ssg76
Nsg69
(lp4552
g62
(g78
g64
NtRp4553
(dp4554
g67
(dp4555
sg76
g4549
sg69
(lp4556
g62
(g83
g64
NtRp4557
(dp4558
g67
(dp4559
sg76
g4553
sg69
(lp4560
g62
(g63
g64
NtRp4561
(dp4562
g67
(dp4563
g75
I4
ssg76
g4557
sg69
(lp4564
S'^\\w+\\.py$'
p4565
asbasbasbag62
(g78
g64
NtRp4566
(dp4567
g67
(dp4568
sg76
g4549
sg69
(lp4569
g62
(g83
g64
NtRp4570
(dp4571
g67
(dp4572
sg76
g4566
sg69
(lp4573
g62
(g63
g64
NtRp4574
(dp4575
g67
(dp4576
g75
I4
ssg76
g4570
sg69
(lp4577
S'^default/\\w+\\.py$'
p4578
asbasbasbag62
(g78
g64
NtRp4579
(dp4580
g67
(dp4581
sg76
g4549
sg69
(lp4582
g62
(g83
g64
NtRp4583
(dp4584
g67
(dp4585
sg76
g4579
sg69
(lp4586
g62
(g63
g64
NtRp4587
(dp4588
g67
(dp4589
g75
I4
ssg76
g4583
sg69
(lp4590
S'^default/design/\\w+\\.py$'
p4591
asbasbasbasbasbasbasbag62
(g78
g64
NtRp4592
(dp4593
g67
(dp4594
sg76
g3603
sg69
(lp4595
g62
(g83
g64
NtRp4596
(dp4597
g67
(dp4598
g87
g88
ssg76
g4592
sg69
(lp4599
S'postprocessing'
p4600
asbag62
(g83
g64
NtRp4601
(dp4602
g67
(dp4603
g94
g95
ssg76
g4592
sg69
(lp4604
S':'
asbag62
(g83
g64
NtRp4605
(dp4606
g67
(dp4607
sg76
g4592
sg69
(lp4608
g62
(g63
g64
NtRp4609
(dp4610
g67
(dp4611
g75
I5
ssg76
g4605
sg69
(lp4612
g62
(g71
g64
NtRp4613
(dp4614
g67
(dp4615
g75
I4
ssg76
Nsg69
(lp4616
sbasbasbasbag62
(g78
g64
NtRp4617
(dp4618
g67
(dp4619
sg76
g3603
sg69
(lp4620
g62
(g83
g64
NtRp4621
(dp4622
g67
(dp4623
g87
g88
ssg76
g4617
sg69
(lp4624
S'session_cookie_expires'
p4625
asbag62
(g83
g64
NtRp4626
(dp4627
g67
(dp4628
g94
g95
ssg76
g4617
sg69
(lp4629
S':'
asbag62
(g83
g64
NtRp4630
(dp4631
g67
(dp4632
sg76
g4617
sg69
(lp4633
g62
(g63
g64
NtRp4634
(dp4635
g67
(dp4636
g75
I5
ssg76
g4630
sg69
(lp4637
S'None'
p4638
asbasbasbag62
(g78
g64
NtRp4639
(dp4640
g67
(dp4641
sg76
g3603
sg69
(lp4642
g62
(g83
g64
NtRp4643
(dp4644
g67
(dp4645
g87
g88
ssg76
g4639
sg69
(lp4646
S'session_data_name'
p4647
asbag62
(g83
g64
NtRp4648
(dp4649
g67
(dp4650
g94
g95
ssg76
g4639
sg69
(lp4651
S':'
asbag62
(g83
g64
NtRp4652
(dp4653
g67
(dp4654
sg76
g4639
sg69
(lp4655
g62
(g63
g64
NtRp4656
(dp4657
g67
(dp4658
g75
I5
ssg76
g4652
sg69
(lp4659
S'session_data_admin'
p4660
asbasbasbag62
(g78
g64
NtRp4661
(dp4662
g67
(dp4663
sg76
g3603
sg69
(lp4664
g62
(g83
g64
NtRp4665
(dp4666
g67
(dp4667
g87
g88
ssg76
g4661
sg69
(lp4668
S'session_file'
p4669
asbag62
(g83
g64
NtRp4670
(dp4671
g67
(dp4672
g94
g95
ssg76
g4661
sg69
(lp4673
S':'
asbag62
(g83
g64
NtRp4674
(dp4675
g67
(dp4676
sg76
g4661
sg69
(lp4677
g62
(g63
g64
NtRp4678
(dp4679
g67
(dp4680
g75
I5
ssg76
g4674
sg69
(lp4681
S"<open file '/opt/smb4manager/applications/admin/sessions/192.168.20.23-bb6d7022-37ea-42bf-aba2-3cf5b4b8fb51', mode 'rb+' at 0xb02a9cd8>"
p4682
asbasbasbag62
(g78
g64
NtRp4683
(dp4684
g67
(dp4685
sg76
g3603
sg69
(lp4686
g62
(g83
g64
NtRp4687
(dp4688
g67
(dp4689
g87
g88
ssg76
g4683
sg69
(lp4690
S'session_filename'
p4691
asbag62
(g83
g64
NtRp4692
(dp4693
g67
(dp4694
g94
g95
ssg76
g4683
sg69
(lp4695
S':'
asbag62
(g83
g64
NtRp4696
(dp4697
g67
(dp4698
sg76
g4683
sg69
(lp4699
g62
(g63
g64
NtRp4700
(dp4701
g67
(dp4702
g75
I5
ssg76
g4696
sg69
(lp4703
S'/opt/smb4manager/applications/admin/sessions/192.168.20.23-bb6d7022-37ea-42bf-aba2-3cf5b4b8fb51'
p4704
asbasbasbag62
(g78
g64
NtRp4705
(dp4706
g67
(dp4707
sg76
g3603
sg69
(lp4708
g62
(g83
g64
NtRp4709
(dp4710
g67
(dp4711
g87
g88
ssg76
g4705
sg69
(lp4712
S'session_id'
p4713
asbag62
(g83
g64
NtRp4714
(dp4715
g67
(dp4716
g94
g95
ssg76
g4705
sg69
(lp4717
S':'
asbag62
(g83
g64
NtRp4718
(dp4719
g67
(dp4720
sg76
g4705
sg69
(lp4721
g62
(g63
g64
NtRp4722
(dp4723
g67
(dp4724
g75
I5
ssg76
g4718
sg69
(lp4725
g493
asbasbasbag62
(g78
g64
NtRp4726
(dp4727
g67
(dp4728
sg76
g3603
sg69
(lp4729
g62
(g83
g64
NtRp4730
(dp4731
g67
(dp4732
g87
g88
ssg76
g4726
sg69
(lp4733
S'session_id_name'
p4734
asbag62
(g83
g64
NtRp4735
(dp4736
g67
(dp4737
g94
g95
ssg76
g4726
sg69
(lp4738
S':'
asbag62
(g83
g64
NtRp4739
(dp4740
g67
(dp4741
sg76
g4726
sg69
(lp4742
g62
(g63
g64
NtRp4743
(dp4744
g67
(dp4745
g75
I5
ssg76
g4739
sg69
(lp4746
g3660
asbasbasbag62
(g78
g64
NtRp4747
(dp4748
g67
(dp4749
sg76
g3603
sg69
(lp4750
g62
(g83
g64
NtRp4751
(dp4752
g67
(dp4753
g87
g88
ssg76
g4747
sg69
(lp4754
S'session_locked'
p4755
asbag62
(g83
g64
NtRp4756
(dp4757
g67
(dp4758
g94
g95
ssg76
g4747
sg69
(lp4759
S':'
asbag62
(g83
g64
NtRp4760
(dp4761
g67
(dp4762
sg76
g4747
sg69
(lp4763
g62
(g63
g64
NtRp4764
(dp4765
g67
(dp4766
g75
I5
ssg76
g4760
sg69
(lp4767
g1852
asbasbasbag62
(g78
g64
NtRp4768
(dp4769
g67
(dp4770
sg76
g3603
sg69
(lp4771
g62
(g83
g64
NtRp4772
(dp4773
g67
(dp4774
g87
g88
ssg76
g4768
sg69
(lp4775
S'session_new'
p4776
asbag62
(g83
g64
NtRp4777
(dp4778
g67
(dp4779
g94
g95
ssg76
g4768
sg69
(lp4780
S':'
asbag62
(g83
g64
NtRp4781
(dp4782
g67
(dp4783
sg76
g4768
sg69
(lp4784
g62
(g63
g64
NtRp4785
(dp4786
g67
(dp4787
g75
I5
ssg76
g4781
sg69
(lp4788
g105
asbasbasbag62
(g78
g64
NtRp4789
(dp4790
g67
(dp4791
sg76
g3603
sg69
(lp4792
g62
(g83
g64
NtRp4793
(dp4794
g67
(dp4795
g87
g88
ssg76
g4789
sg69
(lp4796
S'session_storage_type'
p4797
asbag62
(g83
g64
NtRp4798
(dp4799
g67
(dp4800
g94
g95
ssg76
g4789
sg69
(lp4801
S':'
asbag62
(g83
g64
NtRp4802
(dp4803
g67
(dp4804
sg76
g4789
sg69
(lp4805
g62
(g63
g64
NtRp4806
(dp4807
g67
(dp4808
g75
I5
ssg76
g4802
sg69
(lp4809
g3304
asbasbasbag62
(g78
g64
NtRp4810
(dp4811
g67
(dp4812
sg76
g3603
sg69
(lp4813
g62
(g83
g64
NtRp4814
(dp4815
g67
(dp4816
g87
g88
ssg76
g4810
sg69
(lp4817
S'status'
p4818
asbag62
(g83
g64
NtRp4819
(dp4820
g67
(dp4821
g94
g95
ssg76
g4810
sg69
(lp4822
S':'
asbag62
(g83
g64
NtRp4823
(dp4824
g67
(dp4825
sg76
g4810
sg69
(lp4826
g62
(g63
g64
NtRp4827
(dp4828
g67
(dp4829
g75
I5
ssg76
g4823
sg69
(lp4830
S'200'
p4831
asbasbasbag62
(g78
g64
NtRp4832
(dp4833
g67
(dp4834
sg76
g3603
sg69
(lp4835
g62
(g83
g64
NtRp4836
(dp4837
g67
(dp4838
g87
g88
ssg76
g4832
sg69
(lp4839
S'subtitle'
p4840
asbag62
(g83
g64
NtRp4841
(dp4842
g67
(dp4843
g94
g95
ssg76
g4832
sg69
(lp4844
S':'
asbag62
(g83
g64
NtRp4845
(dp4846
g67
(dp4847
sg76
g4832
sg69
(lp4848
g62
(g63
g64
NtRp4849
(dp4850
g67
(dp4851
g75
I5
ssg76
g4845
sg69
(lp4852
S'admin'
p4853
asbasbasbag62
(g78
g64
NtRp4854
(dp4855
g67
(dp4856
sg76
g3603
sg69
(lp4857
g62
(g83
g64
NtRp4858
(dp4859
g67
(dp4860
g87
g88
ssg76
g4854
sg69
(lp4861
S'title'
p4862
asbag62
(g83
g64
NtRp4863
(dp4864
g67
(dp4865
g94
g95
ssg76
g4854
sg69
(lp4866
S':'
asbag62
(g83
g64
NtRp4867
(dp4868
g67
(dp4869
sg76
g4854
sg69
(lp4870
g62
(g63
g64
NtRp4871
(dp4872
g67
(dp4873
g75
I5
ssg76
g4867
sg69
(lp4874
S'design dashboard'
p4875
asbasbasbag62
(g78
g64
NtRp4876
(dp4877
g67
(dp4878
sg76
g3603
sg69
(lp4879
g62
(g83
g64
NtRp4880
(dp4881
g67
(dp4882
g87
g88
ssg76
g4876
sg69
(lp4883
S'view'
p4884
asbag62
(g83
g64
NtRp4885
(dp4886
g67
(dp4887
g94
g95
ssg76
g4876
sg69
(lp4888
S':'
asbag62
(g83
g64
NtRp4889
(dp4890
g67
(dp4891
sg76
g4876
sg69
(lp4892
g62
(g63
g64
NtRp4893
(dp4894
g67
(dp4895
g75
I5
ssg76
g4889
sg69
(lp4896
S'default/design.html'
p4897
asbasbasbasbasbsS'locals'
p4898
(dp4899
S'get_lang_struct'
p4900
S'<function get_lang_struct>'
p4901
sS'plurals'
p4902
g19
sS'langdir'
p4903
S"'/opt/smb4manager/applications/dashboard/languages/languages'"
p4904
sssS'traceback'
p4905
S'Traceback (most recent call last):\n  File "/opt/smb4manager/gluon/restricted.py", line 212, in restricted\n    exec ccode in environment\n  File "/opt/smb4manager/applications/admin/controllers/default.py", line 1787, in <module>\n  File "/opt/smb4manager/gluon/globals.py", line 188, in <lambda>\n    self._caller = lambda f: f()\n  File "/opt/smb4manager/applications/admin/controllers/default.py", line 1013, in design\n    in read_possible_languages(langpath).iteritems()\n  File "/opt/smb4manager/gluon/languages.py", line 267, in read_possible_languages\n    lambda: read_possible_languages_aux(langdir))\n  File "/opt/smb4manager/gluon/cfs.py", line 40, in getcfs\n    return filter() if callable(filter) else \'\'\n  File "/opt/smb4manager/gluon/languages.py", line 267, in <lambda>\n    lambda: read_possible_languages_aux(langdir))\n  File "/opt/smb4manager/gluon/languages.py", line 231, in read_possible_languages_aux\n    flist = oslistdir(langdir)\nOSError: [Errno 2] No such file or directory: \'/opt/smb4manager/applications/dashboard/languages/languages\'\n'
p4906
s.