(dp1
S'output'
p2
S"<type 'exceptions.OSError'> [Errno 2] No such file or directory: '/opt/smb4manager/applications/dashboard/languages/languages'"
p3
sS'layer'
p4
S'/opt/smb4manager/applications/admin/controllers/default.py'
p5
sS'code'
p6
S'# coding: utf8\n\nEXPERIMENTAL_STUFF = True\n\nif EXPERIMENTAL_STUFF:\n    if is_mobile:\n        response.view = response.view.replace(\'default/\', \'default.mobile/\')\n        response.menu = []\n\nimport re\nfrom gluon.admin import *\nfrom gluon.fileutils import abspath, read_file, write_file\nfrom gluon.utils import web2py_uuid\nfrom glob import glob\nimport shutil\nimport platform\ntry:\n    from git import *\n    have_git = True\nexcept ImportError:\n    have_git = False\n    GIT_MISSING = \'requires gitpython module, but not installed or incompatible version\'\n\nfrom gluon.languages import (read_possible_languages, read_dict, write_dict,\n                             read_plural_dict, write_plural_dict)\n\n\nif DEMO_MODE and request.function in [\'change_password\', \'pack\', \'pack_plugin\', \'upgrade_web2py\', \'uninstall\', \'cleanup\', \'compile_app\', \'remove_compiled_app\', \'delete\', \'delete_plugin\', \'create_file\', \'upload_file\', \'update_languages\', \'reload_routes\', \'git_push\', \'git_pull\']:\n    session.flash = T(\'disabled in demo mode\')\n    redirect(URL(\'site\'))\n\n\nif not is_manager() and request.function in [\'change_password\', \'upgrade_web2py\']:\n    session.flash = T(\'disabled in multi user mode\')\n    redirect(URL(\'site\'))\n\nif FILTER_APPS and request.args(0) and not request.args(0) in FILTER_APPS:\n    session.flash = T(\'disabled in demo mode\')\n    redirect(URL(\'site\'))\n\n\nif not session.token:\n    session.token = web2py_uuid()\n\n\ndef count_lines(data):\n    return len([line for line in data.split(\'\\n\') if line.strip() and not line.startswith(\'#\')])\n\n\ndef log_progress(app, mode=\'EDIT\', filename=None, progress=0):\n    progress_file = os.path.join(apath(app, r=request), \'progress.log\')\n    now = str(request.now)[:19]\n    if not os.path.exists(progress_file):\n        safe_open(progress_file, \'w\').write(\'[%s] START\\n\' % now)\n    if filename:\n        safe_open(progress_file, \'a\').write(\n            \'[%s] %s %s: %s\\n\' % (now, mode, filename, progress))\n\n\ndef safe_open(a, b):\n    if DEMO_MODE and (\'w\' in b or \'a\' in b):\n        class tmp:\n            def write(self, data):\n                pass\n        return tmp()\n    return open(a, b)\n\n\ndef safe_read(a, b=\'r\'):\n    safe_file = safe_open(a, b)\n    try:\n        return safe_file.read()\n    finally:\n        safe_file.close()\n\n\ndef safe_write(a, value, b=\'w\'):\n    safe_file = safe_open(a, b)\n    try:\n        safe_file.write(value)\n    finally:\n        safe_file.close()\n\n\ndef get_app(name=None):\n    app = name or request.args(0)\n    if app and (not MULTI_USER_MODE or is_manager() or\n                db(db.app.name == app)(db.app.owner == auth.user.id).count()):\n        return app\n    session.flash = T(\'App does not exist or your are not authorized\')\n    redirect(URL(\'site\'))\n\n\ndef index():\n    """ Index handler """\n\n    send = request.vars.send\n    if DEMO_MODE:\n        session.authorized = True\n        session.last_time = t0\n    if not send:\n        send = URL(\'site\')\n    if session.authorized:\n        redirect(send)\n    elif request.vars.password:\n        if verify_password(request.vars.password):\n            session.authorized = True\n            login_record(True)\n\n            if CHECK_VERSION:\n                session.check_version = True\n            else:\n                session.check_version = False\n\n            session.last_time = t0\n            if isinstance(send, list):  # ## why does this happen?\n                send = str(send[0])\n\n            redirect(send)\n        else:\n            times_denied = login_record(False)\n            if times_denied >= allowed_number_of_attempts:\n                response.flash = \\\n                    T(\'admin disabled because too many invalid login attempts\')\n            elif times_denied == allowed_number_of_attempts - 1:\n                response.flash = \\\n                    T(\'You have one more login attempt before you are locked out\')\n            else:\n                response.flash = T(\'invalid password.\')\n    return dict(send=send)\n\n\ndef check_version():\n    """ Checks if web2py is up to date """\n\n    session.forget()\n    session._unlock(response)\n\n    new_version, version_number = check_new_version(request.env.web2py_version,\n                                                    WEB2PY_VERSION_URL)\n\n    if new_version == -1:\n        return A(T(\'Unable to check for upgrades\'), _href=WEB2PY_URL)\n    elif new_version != True:\n        return A(T(\'web2py is up to date\'), _href=WEB2PY_URL)\n    elif platform.system().lower() in (\'windows\', \'win32\', \'win64\') and os.path.exists("web2py.exe"):\n        return SPAN(\'You should upgrade to version %s.%s.%s\' % version_number[:3])\n    else:\n        return sp_button(URL(\'upgrade_web2py\'), T(\'upgrade now\')) \\\n            + XML(\' <strong class="upgrade_version">%s.%s.%s</strong>\'\n                  % version_number[:3])\n\n\ndef logout():\n    """ Logout handler """\n    session.authorized = None\n    if MULTI_USER_MODE:\n        redirect(URL(\'user/logout\'))\n    redirect(URL(\'index\'))\n\n\ndef change_password():\n\n    if session.pam_user:\n        session.flash = T(\n            \'PAM authenticated user, cannot change password here\')\n        redirect(URL(\'site\'))\n    form = SQLFORM.factory(Field(\'current_admin_password\', \'password\'),\n                           Field(\'new_admin_password\',\n                                 \'password\', requires=IS_STRONG()),\n                           Field(\'new_admin_password_again\', \'password\'),\n                           _class="span4 well")\n    if form.accepts(request.vars):\n        if not verify_password(request.vars.current_admin_password):\n            form.errors.current_admin_password = T(\'invalid password\')\n        elif form.vars.new_admin_password != form.vars.new_admin_password_again:\n            form.errors.new_admin_password_again = T(\'no match\')\n        else:\n            path = abspath(\'parameters_%s.py\' % request.env.server_port)\n            safe_write(path, \'password="%s"\' % CRYPT()(\n                request.vars.new_admin_password)[0])\n            session.flash = T(\'password changed\')\n            redirect(URL(\'site\'))\n    return dict(form=form)\n\n\ndef site():\n    """ Site handler """\n\n    myversion = request.env.web2py_version\n\n    # Shortcut to make the elif statements more legible\n    file_or_appurl = \'file\' in request.vars or \'appurl\' in request.vars\n\n    class IS_VALID_APPNAME(object):\n        def __call__(self, value):\n            if not re.compile(\'\\w+\').match(value):\n                return (value, T(\'Invalid application name\'))\n            if not request.vars.overwrite and \\\n                    os.path.exists(os.path.join(apath(r=request), value)):\n                return (value, T(\'Application exists already\'))\n            return (value, None)\n\n    is_appname = IS_VALID_APPNAME()\n    form_create = SQLFORM.factory(Field(\'name\', requires=is_appname),\n                                  table_name=\'appcreate\',\n                                  _class=\'well well-small\')\n    form_update = SQLFORM.factory(Field(\'name\', requires=is_appname),\n                                  Field(\'file\', \'upload\', uploadfield=False),\n                                  Field(\'url\'),\n                                  Field(\'overwrite\', \'boolean\'),\n                                  table_name=\'appupdate\',\n                                  _class=\'well well-small\')\n    form_create.process()\n    form_update.process()\n\n    if DEMO_MODE:\n        pass\n\n    elif form_create.accepted:\n        # create a new application\n        appname = cleanpath(form_create.vars.name)\n        created, error = app_create(appname, request, info=True)\n        if created:\n            if MULTI_USER_MODE:\n                db.app.insert(name=appname, owner=auth.user.id)\n            log_progress(appname)\n            session.flash = T(\'new application "%s" created\', appname)\n            redirect(URL(\'design\', args=appname))\n        else:\n            session.flash = \\\n                DIV(T(\'unable to create application "%s"\' % appname),\n                    PRE(error))\n        redirect(URL(r=request))\n\n    elif form_update.accepted:\n        if (form_update.vars.url or \'\').endswith(\'.git\'):\n            if not have_git:\n                session.flash = GIT_MISSING\n                redirect(URL(r=request))\n            target = os.path.join(apath(r=request), form_update.vars.name)\n            try:\n                new_repo = Repo.clone_from(form_update.vars.url, target)\n                session.flash = T(\'new application "%s" imported\',\n                                  form_update.vars.name)\n            except GitCommandError, err:\n                session.flash = T(\'Invalid git repository specified.\')\n            redirect(URL(r=request))\n\n        elif form_update.vars.url:\n            # fetch an application via URL or file upload\n            try:\n                f = urllib.urlopen(form_update.vars.url)\n                if f.code == 404:\n                    raise Exception("404 file not found")\n            except Exception, e:\n                session.flash = \\\n                    DIV(T(\'Unable to download app because:\'), PRE(str(e)))\n                redirect(URL(r=request))\n            fname = form_update.vars.url\n\n        elif form_update.accepted and form_update.vars.file:\n            fname = request.vars.file.filename\n            f = request.vars.file.file\n\n        else:\n            session.flash = \'No file uploaded and no URL specified\'\n            redirect(URL(r=request))\n\n        if f:\n            appname = cleanpath(form_update.vars.name)\n            installed = app_install(appname, f,\n                                    request, fname,\n                                    overwrite=form_update.vars.overwrite)\n        if f and installed:\n            msg = \'application %(appname)s installed with md5sum: %(digest)s\'\n            if MULTI_USER_MODE:\n                db.app.insert(name=appname, owner=auth.user.id)\n            log_progress(appname)\n            session.flash = T(msg, dict(appname=appname,\n                                        digest=md5_hash(installed)))\n        elif f and form_update.vars.overwrite:\n            msg = \'unable to install application "%(appname)s"\'\n            session.flash = T(msg, dict(appname=form_update.vars.name))\n        else:\n            msg = \'unable to install application "%(appname)s"\'\n            session.flash = T(msg, dict(appname=form_update.vars.name))\n        redirect(URL(r=request))\n\n    regex = re.compile(\'^\\w+$\')\n\n    if is_manager():\n        apps = [f for f in os.listdir(apath(r=request)) if regex.match(f)]\n    else:\n        apps = [f.name for f in db(db.app.owner == auth.user_id).select()]\n\n    if FILTER_APPS:\n        apps = [f for f in apps if f in FILTER_APPS]\n\n    apps = sorted(apps, lambda a, b: cmp(a.upper(), b.upper()))\n\n    return dict(app=None, apps=apps, myversion=myversion,\n                form_create=form_create, form_update=form_update)\n\n\ndef report_progress(app):\n    import datetime\n    progress_file = os.path.join(apath(app, r=request), \'progress.log\')\n    regex = re.compile(\'\\[(.*?)\\][^\\:]+\\:\\s+(\\-?\\d+)\')\n    if not os.path.exists(progress_file):\n        return []\n    matches = regex.findall(open(progress_file, \'r\').read())\n    events, counter = [], 0\n    for m in matches:\n        if not m:\n            continue\n        days = -(request.now - datetime.datetime.strptime(m[0],\n                 \'%Y-%m-%d %H:%M:%S\')).days\n        counter += int(m[1])\n        events.append([days, counter])\n    return events\n\n\ndef pack():\n    app = get_app()\n\n    try:\n        if len(request.args) == 1:\n            fname = \'web2py.app.%s.w2p\' % app\n            filename = app_pack(app, request, raise_ex=True)\n        else:\n            fname = \'web2py.app.%s.compiled.w2p\' % app\n            filename = app_pack_compiled(app, request, raise_ex=True)\n    except Exception, e:\n        filename = None\n\n    if filename:\n        response.headers[\'Content-Type\'] = \'application/w2p\'\n        disposition = \'attachment; filename=%s\' % fname\n        response.headers[\'Content-Disposition\'] = disposition\n        return safe_read(filename, \'rb\')\n    else:\n        session.flash = T(\'internal error: %s\' % e)\n        redirect(URL(\'site\'))\n\n\ndef pack_plugin():\n    app = get_app()\n    if len(request.args) == 2:\n        fname = \'web2py.plugin.%s.w2p\' % request.args[1]\n        filename = plugin_pack(app, request.args[1], request)\n    if filename:\n        response.headers[\'Content-Type\'] = \'application/w2p\'\n        disposition = \'attachment; filename=%s\' % fname\n        response.headers[\'Content-Disposition\'] = disposition\n        return safe_read(filename, \'rb\')\n    else:\n        session.flash = T(\'internal error\')\n        redirect(URL(\'plugin\', args=request.args))\n\n\ndef upgrade_web2py():\n    dialog = FORM.confirm(T(\'Upgrade\'),\n                          {T(\'Cancel\'): URL(\'site\')})\n    if dialog.accepted:\n        (success, error) = upgrade(request)\n        if success:\n            session.flash = T(\'web2py upgraded; please restart it\')\n        else:\n            session.flash = T(\'unable to upgrade because "%s"\', error)\n        redirect(URL(\'site\'))\n    return dict(dialog=dialog)\n\n\ndef uninstall():\n    app = get_app()\n\n    dialog = FORM.confirm(T(\'Uninstall\'),\n                          {T(\'Cancel\'): URL(\'site\')})\n    dialog[\'_id\'] = \'confirm_form\'\n    dialog[\'_class\'] = \'well\'\n    for component in dialog.components:\n        component[\'_class\'] = \'btn\'\n\n    if dialog.accepted:\n        if MULTI_USER_MODE:\n            if is_manager() and db(db.app.name == app).delete():\n                pass\n            elif db(db.app.name == app)(db.app.owner == auth.user.id).delete():\n                pass\n            else:\n                session.flash = T(\'no permission to uninstall "%s"\', app)\n                redirect(URL(\'site\'))\n        try:\n            filename = app_pack(app, request, raise_ex=True)\n        except:\n            session.flash = T(\'unable to uninstall "%s"\', app)\n        else:\n            if app_uninstall(app, request):\n                session.flash = T(\'application "%s" uninstalled\', app)\n            else:\n                session.flash = T(\'unable to uninstall "%s"\', app)\n        redirect(URL(\'site\'))\n    return dict(app=app, dialog=dialog)\n\n\ndef cleanup():\n    app = get_app()\n    clean = app_cleanup(app, request)\n    if not clean:\n        session.flash = T("some files could not be removed")\n    else:\n        session.flash = T(\'cache, errors and sessions cleaned\')\n\n    redirect(URL(\'site\'))\n\n\ndef compile_app():\n    app = get_app()\n    c = app_compile(app, request)\n    if not c:\n        session.flash = T(\'application compiled\')\n    else:\n        session.flash = DIV(T(\'Cannot compile: there are errors in your app:\'),\n                            CODE(c))\n    redirect(URL(\'site\'))\n\n\ndef remove_compiled_app():\n    """ Remove the compiled application """\n    app = get_app()\n    remove_compiled_application(apath(app, r=request))\n    session.flash = T(\'compiled application removed\')\n    redirect(URL(\'site\'))\n\n\ndef delete():\n    """ Object delete handler """\n    app = get_app()\n    filename = \'/\'.join(request.args)\n    sender = request.vars.sender\n\n    if isinstance(sender, list):  # ## fix a problem with Vista\n        sender = sender[0]\n\n    if \'nodelete\' in request.vars:\n        redirect(URL(sender, anchor=request.vars.id))\n    elif \'delete\' in request.vars:\n        try:\n            full_path = apath(filename, r=request)\n            lineno = count_lines(open(full_path, \'r\').read())\n            os.unlink(full_path)\n            log_progress(app, \'DELETE\', filename, progress=-lineno)\n            session.flash = T(\'file "%(filename)s" deleted\',\n                              dict(filename=filename))\n        except Exception:\n            session.flash = T(\'unable to delete file "%(filename)s"\',\n                              dict(filename=filename))\n        redirect(URL(sender, anchor=request.vars.id2))\n    return dict(filename=filename, sender=sender)\n\n\ndef delete():\n    """ Object delete handler """\n    app = get_app()\n    filename = \'/\'.join(request.args)\n    sender = request.vars.sender\n\n    if isinstance(sender, list):  # ## fix a problem with Vista\n        sender = sender[0]\n\n    dialog = FORM.confirm(T(\'Delete\'),\n                          {T(\'Cancel\'): URL(sender, anchor=request.vars.id)})\n\n    if dialog.accepted:\n        try:\n            full_path = apath(filename, r=request)\n            lineno = count_lines(open(full_path, \'r\').read())\n            os.unlink(full_path)\n            log_progress(app, \'DELETE\', filename, progress=-lineno)\n            session.flash = T(\'file "%(filename)s" deleted\',\n                              dict(filename=filename))\n        except Exception:\n            session.flash = T(\'unable to delete file "%(filename)s"\',\n                              dict(filename=filename))\n        redirect(URL(sender, anchor=request.vars.id2))\n    return dict(dialog=dialog, filename=filename)\n\n\ndef enable():\n    app = get_app()\n    filename = os.path.join(apath(app, r=request), \'DISABLED\')\n    if is_gae:\n        return SPAN(T(\'Not supported\'), _style=\'color:yellow\')\n    elif os.path.exists(filename):\n        os.unlink(filename)\n        return SPAN(T(\'Disable\'), _style=\'color:green\')\n    else:\n        safe_open(filename, \'wb\').write(time.ctime())\n        return SPAN(T(\'Enable\'), _style=\'color:red\')\n\n\ndef peek():\n    """ Visualize object code """\n    app = get_app(request.vars.app)\n    filename = \'/\'.join(request.args)\n    if request.vars.app:\n        path = abspath(filename)\n    else:\n        path = apath(filename, r=request)\n    try:\n        data = safe_read(path).replace(\'\\r\', \'\')\n    except IOError:\n        session.flash = T(\'file does not exist\')\n        redirect(URL(\'site\'))\n\n    extension = filename[filename.rfind(\'.\') + 1:].lower()\n\n    return dict(app=app,\n                filename=filename,\n                data=data,\n                extension=extension)\n\n\ndef test():\n    """ Execute controller tests """\n    app = get_app()\n    if len(request.args) > 1:\n        file = request.args[1]\n    else:\n        file = \'.*\\.py\'\n\n    controllers = listdir(\n        apath(\'%s/controllers/\' % app, r=request), file + \'$\')\n\n    return dict(app=app, controllers=controllers)\n\n\ndef keepalive():\n    return \'\'\n\n\ndef search():\n    keywords = request.vars.keywords or \'\'\n    app = get_app()\n\n    def match(filename, keywords):\n        filename = os.path.join(apath(app, r=request), filename)\n        if keywords in read_file(filename, \'rb\'):\n            return True\n        return False\n    path = apath(request.args[0], r=request)\n    files1 = glob(os.path.join(path, \'*/*.py\'))\n    files2 = glob(os.path.join(path, \'*/*.html\'))\n    files3 = glob(os.path.join(path, \'*/*/*.html\'))\n    files = [x[len(path) + 1:].replace(\n        \'\\\\\', \'/\') for x in files1 + files2 + files3 if match(x, keywords)]\n    return response.json(dict(files=files, message=T.M(\'Searching: **%s** %%{file}\', len(files))))\n\n\ndef edit():\n    """ File edit handler """\n    # Load json only if it is ajax edited...\n    app = get_app(request.vars.app)\n    filename = \'/\'.join(request.args)\n    if request.vars.app:\n        path = abspath(filename)\n    else:\n        path = apath(filename, r=request)\n     # Try to discover the file type\n    if filename[-3:] == \'.py\':\n        filetype = \'python\'\n    elif filename[-5:] == \'.html\':\n        filetype = \'html\'\n    elif filename[-5:] == \'.load\':\n        filetype = \'html\'\n    elif filename[-4:] == \'.css\':\n        filetype = \'css\'\n    elif filename[-3:] == \'.js\':\n        filetype = \'js\'\n    else:\n        filetype = \'html\'\n\n    # ## check if file is not there\n    if (\'revert\' in request.vars) and os.path.exists(path + \'.bak\'):\n        try:\n            data = safe_read(path + \'.bak\')\n            data1 = safe_read(path)\n        except IOError:\n            session.flash = T(\'Invalid action\')\n            if \'from_ajax\' in request.vars:\n                return response.json({\'error\': str(T(\'Invalid action\'))})\n            else:\n                redirect(URL(\'site\'))\n\n        safe_write(path, data)\n        file_hash = md5_hash(data)\n        saved_on = time.ctime(os.stat(path)[stat.ST_MTIME])\n        safe_write(path + \'.bak\', data1)\n        response.flash = T(\'file "%s" of %s restored\', (filename, saved_on))\n    else:\n        try:\n            data = safe_read(path)\n        except IOError:\n            session.flash = T(\'Invalid action\')\n            if \'from_ajax\' in request.vars:\n                return response.json({\'error\': str(T(\'Invalid action\'))})\n            else:\n                redirect(URL(\'site\'))\n\n        lineno_old = count_lines(data)\n        file_hash = md5_hash(data)\n        saved_on = time.ctime(os.stat(path)[stat.ST_MTIME])\n\n        if request.vars.file_hash and request.vars.file_hash != file_hash:\n            session.flash = T(\'file changed on disk\')\n            data = request.vars.data.replace(\'\\r\\n\', \'\\n\').strip() + \'\\n\'\n            safe_write(path + \'.1\', data)\n            if \'from_ajax\' in request.vars:\n                return response.json({\'error\': str(T(\'file changed on disk\')),\n                                      \'redirect\': URL(\'resolve\',\n                                                      args=request.args)})\n            else:\n                redirect(URL(\'resolve\', args=request.args))\n        elif request.vars.data:\n            safe_write(path + \'.bak\', data)\n            data = request.vars.data.replace(\'\\r\\n\', \'\\n\').strip() + \'\\n\'\n            safe_write(path, data)\n            lineno_new = count_lines(data)\n            log_progress(\n                app, \'EDIT\', filename, progress=lineno_new - lineno_old)\n            file_hash = md5_hash(data)\n            saved_on = time.ctime(os.stat(path)[stat.ST_MTIME])\n            response.flash = T(\'file saved on %s\', saved_on)\n\n    data_or_revert = (request.vars.data or request.vars.revert)\n\n    # Check compile errors\n    highlight = None\n    if filetype == \'python\' and request.vars.data:\n        import _ast\n        try:\n            code = request.vars.data.rstrip().replace(\'\\r\\n\', \'\\n\') + \'\\n\'\n            compile(code, path, "exec", _ast.PyCF_ONLY_AST)\n        except Exception, e:\n            start = sum([len(line) + 1 for l, line\n                         in enumerate(request.vars.data.split("\\n"))\n                         if l < e.lineno - 1])\n            if e.text and e.offset:\n                offset = e.offset - (len(e.text) - len(\n                    e.text.splitlines()[-1]))\n            else:\n                offset = 0\n            highlight = {\'start\': start, \'end\': start +\n                         offset + 1, \'lineno\': e.lineno}\n            try:\n                ex_name = e.__class__.__name__\n            except:\n                ex_name = \'unknown exception!\'\n            response.flash = DIV(T(\'failed to compile file because:\'), BR(),\n                                 B(ex_name), \' \' + T(\'at line %s\', e.lineno),\n                                 offset and \' \' +\n                                 T(\'at char %s\', offset) or \'\',\n                                 PRE(str(e)))\n\n    if data_or_revert and request.args[1] == \'modules\':\n        # Lets try to reload the modules\n        try:\n            mopath = \'.\'.join(request.args[2:])[:-3]\n            exec \'import applications.%s.modules.%s\' % (\n                request.args[0], mopath)\n            reload(sys.modules[\'applications.%s.modules.%s\'\n                               % (request.args[0], mopath)])\n        except Exception, e:\n            response.flash = DIV(\n                T(\'failed to reload module because:\'), PRE(str(e)))\n\n    edit_controller = None\n    editviewlinks = None\n    view_link = None\n    if filetype == \'html\' and len(request.args) >= 3:\n        cfilename = os.path.join(request.args[0], \'controllers\',\n                                 request.args[2] + \'.py\')\n        if os.path.exists(apath(cfilename, r=request)):\n            edit_controller = URL(\'edit\', args=[cfilename])\n            view = request.args[3].replace(\'.html\', \'\')\n            view_link = URL(request.args[0], request.args[2], view)\n    elif filetype == \'python\' and request.args[1] == \'controllers\':\n        ## it\'s a controller file.\n        ## Create links to all of the associated view files.\n        app = get_app()\n        viewname = os.path.splitext(request.args[2])[0]\n        viewpath = os.path.join(app, \'views\', viewname)\n        aviewpath = apath(viewpath, r=request)\n        viewlist = []\n        if os.path.exists(aviewpath):\n            if os.path.isdir(aviewpath):\n                viewlist = glob(os.path.join(aviewpath, \'*.html\'))\n        elif os.path.exists(aviewpath + \'.html\'):\n            viewlist.append(aviewpath + \'.html\')\n        if len(viewlist):\n            editviewlinks = []\n            for v in viewlist:\n                vf = os.path.split(v)[-1]\n                vargs = "/".join([viewpath.replace(os.sep, "/"), vf])\n                editviewlinks.append(A(vf.split(".")[0],\n                                       _href=URL(\'edit\', args=[vargs])))\n\n    if len(request.args) > 2 and request.args[1] == \'controllers\':\n        controller = (request.args[2])[:-3]\n        functions = regex_expose.findall(data)\n    else:\n        (controller, functions) = (None, None)\n\n    if \'from_ajax\' in request.vars:\n        return response.json({\'file_hash\': file_hash, \'saved_on\': saved_on, \'functions\': functions, \'controller\': controller, \'application\': request.args[0], \'highlight\': highlight})\n    else:\n\n        editarea_preferences = {}\n        editarea_preferences[\'FONT_SIZE\'] = \'10\'\n        editarea_preferences[\'FULL_SCREEN\'] = \'false\'\n        editarea_preferences[\'ALLOW_TOGGLE\'] = \'true\'\n        editarea_preferences[\'REPLACE_TAB_BY_SPACES\'] = \'4\'\n        editarea_preferences[\'DISPLAY\'] = \'onload\'\n        for key in editarea_preferences:\n            if key in globals():\n                editarea_preferences[key] = globals()[key]\n        return dict(app=request.args[0],\n                    filename=filename,\n                    filetype=filetype,\n                    data=data,\n                    edit_controller=edit_controller,\n                    file_hash=file_hash,\n                    saved_on=saved_on,\n                    controller=controller,\n                    functions=functions,\n                    view_link=view_link,\n                    editarea_preferences=editarea_preferences,\n                    editviewlinks=editviewlinks)\n\n\ndef resolve():\n    """\n    """\n\n    filename = \'/\'.join(request.args)\n    # ## check if file is not there\n    path = apath(filename, r=request)\n    a = safe_read(path).split(\'\\n\')\n    try:\n        b = safe_read(path + \'.1\').split(\'\\n\')\n    except IOError:\n        session.flash = \'Other file, no longer there\'\n        redirect(URL(\'edit\', args=request.args))\n\n    d = difflib.ndiff(a, b)\n\n    def leading(line):\n        """  """\n\n        # TODO: we really need to comment this\n        z = \'\'\n        for (k, c) in enumerate(line):\n            if c == \' \':\n                z += \'&nbsp;\'\n            elif c == \' \\t\':\n                z += \'&nbsp;\'\n            elif k == 0 and c == \'?\':\n                pass\n            else:\n                break\n\n        return XML(z)\n\n    def getclass(item):\n        """ Determine item class """\n\n        if item[0] == \' \':\n            return \'normal\'\n        if item[0] == \'+\':\n            return \'plus\'\n        if item[0] == \'-\':\n            return \'minus\'\n\n    if request.vars:\n        c = \'\\n\'.join([item[2:].rstrip() for (i, item) in enumerate(d) if item[0]\n                       == \' \' or \'line%i\' % i in request.vars])\n        safe_write(path, c)\n        session.flash = \'files merged\'\n        redirect(URL(\'edit\', args=request.args))\n    else:\n        # Making the short circuit compatible with <= python2.4\n        gen_data = lambda index, item: not item[:1] in [\'+\', \'-\'] and "" \\\n            or INPUT(_type=\'checkbox\',\n                     _name=\'line%i\' % index,\n                     value=item[0] == \'+\')\n\n        diff = TABLE(*[TR(TD(gen_data(i, item)),\n                          TD(item[0]),\n                          TD(leading(item[2:]),\n                          TT(item[2:].rstrip())),\n                          _class=getclass(item))\n                       for (i, item) in enumerate(d) if item[0] != \'?\'])\n\n    return dict(diff=diff, filename=filename)\n\n\ndef edit_language():\n    """ Edit language file """\n    app = get_app()\n    filename = \'/\'.join(request.args)\n    strings = read_dict(apath(filename, r=request))\n\n    if \'__corrupted__\' in strings:\n        form = SPAN(strings[\'__corrupted__\'], _class=\'error\')\n        return dict(filename=filename, form=form)\n\n    keys = sorted(strings.keys(), lambda x, y: cmp(\n        unicode(x, \'utf-8\').lower(), unicode(y, \'utf-8\').lower()))\n    rows = []\n    rows.append(H2(T(\'Original/Translation\')))\n\n    for key in keys:\n        name = md5_hash(key)\n        s = strings[key]\n        (prefix, sep, key) = key.partition(\'\\x01\')\n        if sep:\n            prefix = SPAN(prefix + \': \', _class=\'tm_ftag\')\n            k = key\n        else:\n            (k, prefix) = (prefix, \'\')\n\n        _class = \'untranslated\' if k == s else \'translated\'\n\n        if len(s) <= 40:\n            elem = INPUT(_type=\'text\', _name=name, value=s,\n                         _size=70, _class=_class)\n        else:\n            elem = TEXTAREA(_name=name, value=s, _cols=70,\n                            _rows=5, _class=_class)\n\n        # Making the short circuit compatible with <= python2.4\n        k = (s != k) and k or B(k)\n\n        new_row = DIV(LABEL(prefix, k, _style="font-weight:normal;"),\n                      CAT(elem, \'\\n\', TAG.BUTTON(\n                    T(\'delete\'),\n                    _onclick=\'return delkey("%s")\' % name,\n                    _class=\'btn\')), _id=name, _class=\'span6 well well-small\')\n\n        rows.append(DIV(new_row,_class="row-fluid"))\n    rows.append(DIV(INPUT(_type=\'submit\', _value=T(\'update\'), _class="btn btn-primary"), _class=\'controls\'))\n    form = FORM(*rows)\n    if form.accepts(request.vars, keepvalues=True):\n        strs = dict()\n        for key in keys:\n            name = md5_hash(key)\n            if form.vars[name] == chr(127):\n                continue\n            strs[key] = form.vars[name]\n        write_dict(apath(filename, r=request), strs)\n        session.flash = T(\'file saved on %(time)s\', dict(time=time.ctime()))\n        redirect(URL(r=request, args=request.args))\n    return dict(app=request.args[0], filename=filename, form=form)\n\n\ndef edit_plurals():\n    """ Edit plurals file """\n    app = get_app()\n    filename = \'/\'.join(request.args)\n    plurals = read_plural_dict(\n        apath(filename, r=request))  # plural forms dictionary\n    nplurals = int(request.vars.nplurals) - 1  # plural forms quantity\n    xnplurals = xrange(nplurals)\n\n    if \'__corrupted__\' in plurals:\n        # show error message and exit\n        form = SPAN(plurals[\'__corrupted__\'], _class=\'error\')\n        return dict(filename=filename, form=form)\n\n    keys = sorted(plurals.keys(), lambda x, y: cmp(\n        unicode(x, \'utf-8\').lower(), unicode(y, \'utf-8\').lower()))\n    tab_rows = []\n    for key in keys:\n        name = md5_hash(key)\n        forms = plurals[key]\n\n        if len(forms) < nplurals:\n            forms.extend(None for i in xrange(nplurals - len(forms)))\n        tab_col1 = DIV(CAT(LABEL(T("Singular Form")), B(key,\n                                                        _class=\'fake-input\')))\n        tab_inputs = [SPAN(LABEL(T("Plural Form #%s", n + 1)), INPUT(_type=\'text\', _name=name + \'_\' + str(n), value=forms[n], _size=20), _class=\'span6\') for n in xnplurals]\n        tab_col2 = DIV(CAT(*tab_inputs))\n        tab_col3 = DIV(CAT(LABEL(XML(\'&nbsp;\')), TAG.BUTTON(T(\'delete\'), _onclick=\'return delkey("%s")\' % name, _class=\'btn\'), _class=\'span6\'))\n        tab_row = DIV(DIV(tab_col1, \'\\n\', tab_col2, \'\\n\', tab_col3, _class=\'well well-small\'), _id=name, _class=\'row-fluid tab_row\')\n        tab_rows.append(tab_row)\n\n    tab_rows.append(DIV(TAG[\'button\'](T(\'update\'), _type=\'submit\',\n                                      _class=\'btn btn-primary\'),\n                        _class=\'controls\'))\n    tab_container = DIV(*tab_rows, **dict(_class="row-fluid"))\n\n    form = FORM(tab_container)\n    if form.accepts(request.vars, keepvalues=True):\n        new_plurals = dict()\n        for key in keys:\n            name = md5_hash(key)\n            if form.vars[name + \'_0\'] == chr(127):\n                continue\n            new_plurals[key] = [form.vars[name + \'_\' + str(n)]\n                                for n in xnplurals]\n        write_plural_dict(apath(filename, r=request), new_plurals)\n        session.flash = T(\'file saved on %(time)s\', dict(time=time.ctime()))\n        redirect(URL(r=request, args=request.args, vars=dict(\n            nplurals=request.vars.nplurals)))\n    return dict(app=request.args[0], filename=filename, form=form)\n\n\ndef about():\n    """ Read about info """\n    app = get_app()\n    # ## check if file is not there\n    about = safe_read(apath(\'%s/ABOUT\' % app, r=request))\n    license = safe_read(apath(\'%s/LICENSE\' % app, r=request))\n    return dict(app=app, about=MARKMIN(about), license=MARKMIN(license), progress=report_progress(app))\n\n\ndef design():\n    """ Application design handler """\n    app = get_app()\n\n    if not response.flash and app == request.application:\n        msg = T(\'ATTENTION: you cannot edit the running application!\')\n        response.flash = msg\n\n    if request.vars and not request.vars.token == session.token:\n        redirect(URL(\'logout\'))\n\n    if request.vars.pluginfile is not None and not isinstance(request.vars.pluginfile, str):\n        filename = os.path.basename(request.vars.pluginfile.filename)\n        if plugin_install(app, request.vars.pluginfile.file,\n                          request, filename):\n            session.flash = T(\'new plugin installed\')\n            redirect(URL(\'design\', args=app))\n        else:\n            session.flash = \\\n                T(\'unable to create application "%s"\', request.vars.filename)\n        redirect(URL(r=request))\n    elif isinstance(request.vars.pluginfile, str):\n        session.flash = T(\'plugin not specified\')\n        redirect(URL(r=request))\n\n    # If we have only pyc files it means that\n    # we cannot design\n    if os.path.exists(apath(\'%s/compiled\' % app, r=request)):\n        session.flash = \\\n            T(\'application is compiled and cannot be designed\')\n        redirect(URL(\'site\'))\n\n    # Get all models\n    models = listdir(apath(\'%s/models/\' % app, r=request), \'.*\\.py$\')\n    models = [x.replace(\'\\\\\', \'/\') for x in models]\n    defines = {}\n    for m in models:\n        data = safe_read(apath(\'%s/models/%s\' % (app, m), r=request))\n        defines[m] = regex_tables.findall(data)\n        defines[m].sort()\n\n    # Get all controllers\n    controllers = sorted(\n        listdir(apath(\'%s/controllers/\' % app, r=request), \'.*\\.py$\'))\n    controllers = [x.replace(\'\\\\\', \'/\') for x in controllers]\n    functions = {}\n    for c in controllers:\n        data = safe_read(apath(\'%s/controllers/%s\' % (app, c), r=request))\n        items = regex_expose.findall(data)\n        functions[c] = items\n\n    # Get all views\n    views = sorted(\n        listdir(apath(\'%s/views/\' % app, r=request), \'[\\w/\\-]+(\\.\\w+)+$\'))\n    views = [x.replace(\'\\\\\', \'/\') for x in views if not x.endswith(\'.bak\')]\n    extend = {}\n    include = {}\n    for c in views:\n        data = safe_read(apath(\'%s/views/%s\' % (app, c), r=request))\n        items = regex_extend.findall(data)\n\n        if items:\n            extend[c] = items[0][1]\n\n        items = regex_include.findall(data)\n        include[c] = [i[1] for i in items]\n\n    # Get all modules\n    modules = listdir(apath(\'%s/modules/\' % app, r=request), \'.*\\.py$\')\n    modules = modules = [x.replace(\'\\\\\', \'/\') for x in modules]\n    modules.sort()\n\n    # Get all private files\n    privates = listdir(apath(\'%s/private/\' % app, r=request), \'[^\\.#].*\')\n    privates = [x.replace(\'\\\\\', \'/\') for x in privates]\n    privates.sort()\n\n    # Get all static files\n    statics = listdir(apath(\'%s/static/\' % app, r=request), \'[^\\.#].*\')\n    statics = [x.replace(\'\\\\\', \'/\') for x in statics]\n    statics.sort()\n\n    # Get all languages\n    langpath = os.path.join(apath(app, r=request),\'languages\')\n    languages = dict([(lang, info) for lang, info\n                      in read_possible_languages(langpath).iteritems()\n                      if info[2] != 0])  # info[2] is langfile_mtime:\n                                         # get only existed files\n\n    #Get crontab\n    cronfolder = apath(\'%s/cron\' % app, r=request)\n    if not os.path.exists(cronfolder):\n        os.mkdir(cronfolder)\n    crontab = apath(\'%s/cron/crontab\' % app, r=request)\n    if not os.path.exists(crontab):\n        safe_write(crontab, \'#crontab\')\n\n    plugins = []\n\n    def filter_plugins(items, plugins):\n        plugins += [item[7:].split(\'/\')[0].split(\n            \'.\')[0] for item in items if item.startswith(\'plugin_\')]\n        plugins[:] = list(set(plugins))\n        plugins.sort()\n        return [item for item in items if not item.startswith(\'plugin_\')]\n\n    return dict(app=app,\n                models=filter_plugins(models, plugins),\n                defines=defines,\n                controllers=filter_plugins(controllers, plugins),\n                functions=functions,\n                views=filter_plugins(views, plugins),\n                modules=filter_plugins(modules, plugins),\n                extend=extend,\n                include=include,\n                privates=filter_plugins(privates, plugins),\n                statics=filter_plugins(statics, plugins),\n                languages=languages,\n                crontab=crontab,\n                plugins=plugins)\n\n\ndef delete_plugin():\n    """ Object delete handler """\n    app = request.args(0)\n    plugin = request.args(1)\n    plugin_name = \'plugin_\' + plugin\n\n    dialog = FORM.confirm(\n        T(\'Delete\'),\n        {T(\'Cancel\'): URL(\'design\', args=app)})\n\n    if dialog.accepted:\n        try:\n            for folder in [\'models\', \'views\', \'controllers\', \'static\', \'modules\', \'private\']:\n                path = os.path.join(apath(app, r=request), folder)\n                for item in os.listdir(path):\n                    if item.rsplit(\'.\', 1)[0] == plugin_name:\n                        filename = os.path.join(path, item)\n                        if os.path.isdir(filename):\n                            shutil.rmtree(filename)\n                        else:\n                            os.unlink(filename)\n            session.flash = T(\'plugin "%(plugin)s" deleted\',\n                              dict(plugin=plugin))\n        except Exception:\n            session.flash = T(\'unable to delete file plugin "%(plugin)s"\',\n                              dict(plugin=plugin))\n        redirect(URL(\'design\', args=request.args(0), anchor=request.vars.id2))\n    return dict(dialog=dialog, plugin=plugin)\n\n\ndef plugin():\n    """ Application design handler """\n    app = get_app()\n    plugin = request.args(1)\n\n    if not response.flash and app == request.application:\n        msg = T(\'ATTENTION: you cannot edit the running application!\')\n        response.flash = msg\n\n    # If we have only pyc files it means that\n    # we cannot design\n    if os.path.exists(apath(\'%s/compiled\' % app, r=request)):\n        session.flash = \\\n            T(\'application is compiled and cannot be designed\')\n        redirect(URL(\'site\'))\n\n    # Get all models\n    models = listdir(apath(\'%s/models/\' % app, r=request), \'.*\\.py$\')\n    models = [x.replace(\'\\\\\', \'/\') for x in models]\n    defines = {}\n    for m in models:\n        data = safe_read(apath(\'%s/models/%s\' % (app, m), r=request))\n        defines[m] = regex_tables.findall(data)\n        defines[m].sort()\n\n    # Get all controllers\n    controllers = sorted(\n        listdir(apath(\'%s/controllers/\' % app, r=request), \'.*\\.py$\'))\n    controllers = [x.replace(\'\\\\\', \'/\') for x in controllers]\n    functions = {}\n    for c in controllers:\n        data = safe_read(apath(\'%s/controllers/%s\' % (app, c), r=request))\n        items = regex_expose.findall(data)\n        functions[c] = items\n\n    # Get all views\n    views = sorted(\n        listdir(apath(\'%s/views/\' % app, r=request), \'[\\w/\\-]+\\.\\w+$\'))\n    views = [x.replace(\'\\\\\', \'/\') for x in views]\n    extend = {}\n    include = {}\n    for c in views:\n        data = safe_read(apath(\'%s/views/%s\' % (app, c), r=request))\n        items = regex_extend.findall(data)\n        if items:\n            extend[c] = items[0][1]\n\n        items = regex_include.findall(data)\n        include[c] = [i[1] for i in items]\n\n    # Get all modules\n    modules = listdir(apath(\'%s/modules/\' % app, r=request), \'.*\\.py$\')\n    modules = modules = [x.replace(\'\\\\\', \'/\') for x in modules]\n    modules.sort()\n\n    # Get all private files\n    privates = listdir(apath(\'%s/private/\' % app, r=request), \'[^\\.#].*\')\n    privates = [x.replace(\'\\\\\', \'/\') for x in privates]\n    privates.sort()\n\n    # Get all static files\n    statics = listdir(apath(\'%s/static/\' % app, r=request), \'[^\\.#].*\')\n    statics = [x.replace(\'\\\\\', \'/\') for x in statics]\n    statics.sort()\n\n    # Get all languages\n    languages = sorted([lang + \'.py\' for lang, info in\n                        T.get_possible_languages_info().iteritems()\n                        if info[2] != 0])  # info[2] is langfile_mtime:\n                                    # get only existed files\n\n    #Get crontab\n    crontab = apath(\'%s/cron/crontab\' % app, r=request)\n    if not os.path.exists(crontab):\n        safe_write(crontab, \'#crontab\')\n\n    def filter_plugins(items):\n        regex = re.compile(\'^plugin_\' + plugin + \'(/.*|\\..*)?$\')\n        return [item for item in items if item and regex.match(item)]\n\n    return dict(app=app,\n                models=filter_plugins(models),\n                defines=defines,\n                controllers=filter_plugins(controllers),\n                functions=functions,\n                views=filter_plugins(views),\n                modules=filter_plugins(modules),\n                extend=extend,\n                include=include,\n                privates=filter_plugins(privates),\n                statics=filter_plugins(statics),\n                languages=languages,\n                crontab=crontab)\n\n\ndef create_file():\n    """ Create files handler """\n    if request.vars and not request.vars.token == session.token:\n        redirect(URL(\'logout\'))\n    try:\n        anchor = \'#\' + request.vars.id if request.vars.id else \'\'\n        if request.vars.app:\n            app = get_app(request.vars.app)\n            path = abspath(request.vars.location)\n        else:\n            app = get_app(name=request.vars.location.split(\'/\')[0])\n            path = apath(request.vars.location, r=request)\n        filename = re.sub(\'[^\\w./-]+\', \'_\', request.vars.filename)\n        if path[-7:] == \'/rules/\':\n            # Handle plural rules files\n            if len(filename) == 0:\n                raise SyntaxError\n            if not filename[-3:] == \'.py\':\n                filename += \'.py\'\n            lang = re.match(\'^plural_rules-(.*)\\.py$\', filename).group(1)\n            langinfo = read_possible_languages(apath(app, r=request))[lang]\n            text = dedent("""\n                   #!/usr/bin/env python\n                   # -*- coding: utf8 -*-\n                   # Plural-Forms for %(lang)s (%(langname)s)\n\n                   nplurals=2  # for example, English language has 2 forms:\n                               # 1 singular and 1 plural\n\n                   # Determine plural_id for number *n* as sequence of positive\n                   # integers: 0,1,...\n                   # NOTE! For singular form ALWAYS return plural_id = 0\n                   get_plural_id = lambda n: int(n != 1)\n\n                   # Construct and return plural form of *word* using\n                   # *plural_id* (which ALWAYS>0). This function will be executed\n                   # for words (or phrases) not found in plural_dict dictionary.\n                   # By default this function simply returns word in singular:\n                   construct_plural_form = lambda word, plural_id: word\n                   """)[1:] % dict(lang=langinfo[0], langname=langinfo[1])\n\n        elif path[-11:] == \'/languages/\':\n            # Handle language files\n            if len(filename) == 0:\n                raise SyntaxError\n            if not filename[-3:] == \'.py\':\n                filename += \'.py\'\n            path = os.path.join(apath(app, r=request), \'languages\', filename)\n            if not os.path.exists(path):\n                safe_write(path, \'\')\n            # create language xx[-yy].py file:\n            findT(apath(app, r=request), filename[:-3])\n            session.flash = T(\'language file "%(filename)s" created/updated\',\n                              dict(filename=filename))\n            redirect(request.vars.sender + anchor)\n\n        elif path[-8:] == \'/models/\':\n            # Handle python models\n            if not filename[-3:] == \'.py\':\n                filename += \'.py\'\n\n            if len(filename) == 3:\n                raise SyntaxError\n\n            text = \'# coding: utf8\\n\'\n\n        elif path[-13:] == \'/controllers/\':\n            # Handle python controllers\n            if not filename[-3:] == \'.py\':\n                filename += \'.py\'\n\n            if len(filename) == 3:\n                raise SyntaxError\n\n            text = \'# coding: utf8\\n# %s\\ndef index(): return dict(message="hello from %s")\'\n            text = text % (T(\'try something like\'), filename)\n\n        elif path[-7:] == \'/views/\':\n            if request.vars.plugin and not filename.startswith(\'plugin_%s/\' % request.vars.plugin):\n                filename = \'plugin_%s/%s\' % (request.vars.plugin, filename)\n            # Handle template (html) views\n            if filename.find(\'.\') < 0:\n                filename += \'.html\'\n            extension = filename.split(\'.\')[-1].lower()\n\n            if len(filename) == 5:\n                raise SyntaxError\n\n            msg = T(\n                \'This is the %(filename)s template\', dict(filename=filename))\n            if extension == \'html\':\n                text = dedent("""\n                   {{extend \'layout.html\'}}\n                   <h1>%s</h1>\n                   {{=BEAUTIFY(response._vars)}}""" % msg)[1:]\n            else:\n                generic = os.path.join(path, \'generic.\' + extension)\n                if os.path.exists(generic):\n                    text = read_file(generic)\n                else:\n                    text = \'\'\n\n        elif path[-9:] == \'/modules/\':\n            if request.vars.plugin and not filename.startswith(\'plugin_%s/\' % request.vars.plugin):\n                filename = \'plugin_%s/%s\' % (request.vars.plugin, filename)\n            # Handle python module files\n            if not filename[-3:] == \'.py\':\n                filename += \'.py\'\n\n            if len(filename) == 3:\n                raise SyntaxError\n\n            text = dedent("""\n                   #!/usr/bin/env python\n                   # coding: utf8\n                   from gluon import *\\n""")[1:]\n\n        elif (path[-8:] == \'/static/\') or (path[-9:] == \'/private/\'):\n            if request.vars.plugin and not filename.startswith(\'plugin_%s/\' % request.vars.plugin):\n                filename = \'plugin_%s/%s\' % (request.vars.plugin, filename)\n            text = \'\'\n\n        else:\n            redirect(request.vars.sender + anchor)\n\n        full_filename = os.path.join(path, filename)\n        dirpath = os.path.dirname(full_filename)\n\n        if not os.path.exists(dirpath):\n            os.makedirs(dirpath)\n\n        if os.path.exists(full_filename):\n            raise SyntaxError\n\n        safe_write(full_filename, text)\n        log_progress(app, \'CREATE\', filename)\n        session.flash = T(\'file "%(filename)s" created\',\n                          dict(filename=full_filename[len(path):]))\n        vars = {}\n        if request.vars.id:\n            vars[\'id\'] = request.vars.id\n        if request.vars.app:\n            vars[\'app\'] = request.vars.app\n        redirect(URL(\'edit\',\n                 args=[os.path.join(request.vars.location, filename)], vars=vars))\n    except Exception, e:\n        if not isinstance(e, HTTP):\n            session.flash = T(\'cannot create file\')\n\n    redirect(request.vars.sender + anchor)\n\n\ndef upload_file():\n    """ File uploading handler """\n    if request.vars and not request.vars.token == session.token:\n        redirect(URL(\'logout\'))\n    try:\n        filename = None\n        app = get_app(name=request.vars.location.split(\'/\')[0])\n        path = apath(request.vars.location, r=request)\n\n        if request.vars.filename:\n            filename = re.sub(\'[^\\w\\./]+\', \'_\', request.vars.filename)\n        else:\n            filename = os.path.split(request.vars.file.filename)[-1]\n\n        if path[-8:] == \'/models/\' and not filename[-3:] == \'.py\':\n            filename += \'.py\'\n\n        if path[-9:] == \'/modules/\' and not filename[-3:] == \'.py\':\n            filename += \'.py\'\n\n        if path[-13:] == \'/controllers/\' and not filename[-3:] == \'.py\':\n            filename += \'.py\'\n\n        if path[-7:] == \'/views/\' and not filename[-5:] == \'.html\':\n            filename += \'.html\'\n\n        if path[-11:] == \'/languages/\' and not filename[-3:] == \'.py\':\n            filename += \'.py\'\n\n        filename = os.path.join(path, filename)\n        dirpath = os.path.dirname(filename)\n\n        if not os.path.exists(dirpath):\n            os.makedirs(dirpath)\n\n        data = request.vars.file.file.read()\n        lineno = count_lines(data)\n        safe_write(filename, data, \'wb\')\n        log_progress(app, \'UPLOAD\', filename, lineno)\n        session.flash = T(\'file "%(filename)s" uploaded\',\n                          dict(filename=filename[len(path):]))\n    except Exception:\n        if filename:\n            d = dict(filename=filename[len(path):])\n        else:\n            d = dict(filename=\'unkown\')\n        session.flash = T(\'cannot upload file "%(filename)s"\', d)\n\n    redirect(request.vars.sender)\n\n\ndef errors():\n    """ Error handler """\n    import operator\n    import os\n    import pickle\n    import hashlib\n\n    app = get_app()\n\n    method = request.args(1) or \'new\'\n    db_ready = {}\n    db_ready[\'status\'] = get_ticket_storage(app)\n    db_ready[\'errmessage\'] = T(\n        "No ticket_storage.txt found under /private folder")\n    db_ready[\'errlink\'] = "http://web2py.com/books/default/chapter/29/13#Collecting-tickets"\n\n    if method == \'new\':\n        errors_path = apath(\'%s/errors\' % app, r=request)\n\n        delete_hashes = []\n        for item in request.vars:\n            if item[:7] == \'delete_\':\n                delete_hashes.append(item[7:])\n\n        hash2error = dict()\n\n        for fn in listdir(errors_path, \'^[a-fA-F0-9.\\-]+$\'):\n            fullpath = os.path.join(errors_path, fn)\n            if not os.path.isfile(fullpath):\n                continue\n            try:\n                fullpath_file = open(fullpath, \'r\')\n                try:\n                    error = pickle.load(fullpath_file)\n                finally:\n                    fullpath_file.close()\n            except IOError:\n                continue\n            except EOFError:\n                continue\n\n            hash = hashlib.md5(error[\'traceback\']).hexdigest()\n\n            if hash in delete_hashes:\n                os.unlink(fullpath)\n            else:\n                try:\n                    hash2error[hash][\'count\'] += 1\n                except KeyError:\n                    error_lines = error[\'traceback\'].split("\\n")\n                    last_line = error_lines[-2]\n                    error_causer = os.path.split(error[\'layer\'])[1]\n                    hash2error[hash] = dict(count=1, pickel=error,\n                                            causer=error_causer,\n                                            last_line=last_line,\n                                            hash=hash, ticket=fn)\n\n        decorated = [(x[\'count\'], x) for x in hash2error.values()]\n        decorated.sort(key=operator.itemgetter(0), reverse=True)\n\n        return dict(errors=[x[1] for x in decorated], app=app, method=method, db_ready=db_ready)\n\n    elif method == \'dbnew\':\n        errors_path = apath(\'%s/errors\' % app, r=request)\n        tk_db, tk_table = get_ticket_storage(app)\n\n        delete_hashes = []\n        for item in request.vars:\n            if item[:7] == \'delete_\':\n                delete_hashes.append(item[7:])\n\n        hash2error = dict()\n\n        for fn in tk_db(tk_table.id > 0).select():\n            try:\n                error = pickle.loads(fn.ticket_data)\n            except AttributeError:\n                tk_db(tk_table.id == fn.id).delete()\n                tk_db.commit()\n\n            hash = hashlib.md5(error[\'traceback\']).hexdigest()\n\n            if hash in delete_hashes:\n                tk_db(tk_table.id == fn.id).delete()\n                tk_db.commit()\n            else:\n                try:\n                    hash2error[\'hash\'][\'count\'] += 1\n                except KeyError:\n                    error_lines = error[\'traceback\'].split("\\n")\n                    last_line = error_lines[-2]\n                    error_causer = os.path.split(error[\'layer\'])[1]\n                    hash2error[hash] = dict(count=1, pickel=error,\n                                            causer=error_causer,\n                                            last_line=last_line,\n                                            hash=hash, ticket=fn.ticket_id)\n\n        decorated = [(x[\'count\'], x) for x in hash2error.values()]\n\n        decorated.sort(key=operator.itemgetter(0), reverse=True)\n\n        return dict(errors=[x[1] for x in decorated], app=app, method=method)\n\n    elif method == \'dbold\':\n        tk_db, tk_table = get_ticket_storage(app)\n        for item in request.vars:\n            if item[:7] == \'delete_\':\n                tk_db(tk_table.ticket_id == item[7:]).delete()\n                tk_db.commit()\n        tickets_ = tk_db(tk_table.id > 0).select(tk_table.ticket_id, tk_table.created_datetime, orderby=~tk_table.created_datetime)\n        tickets = [row.ticket_id for row in tickets_]\n        times = dict(\n            [(row.ticket_id, row.created_datetime) for row in tickets_])\n\n        return dict(app=app, tickets=tickets, method=method, times=times)\n\n    else:\n        for item in request.vars:\n            # delete_all} rows doesn\'t contain any ticket\n            # Remove anything else as requested\n            if item[:7] == \'delete_\' and (not item == "delete_all}"):\n                os.unlink(apath(\'%s/errors/%s\' % (app, item[7:]), r=request))\n        func = lambda p: os.stat(apath(\'%s/errors/%s\' %\n                                       (app, p), r=request)).st_mtime\n        tickets = sorted(\n            listdir(apath(\'%s/errors/\' % app, r=request), \'^\\w.*\'),\n            key=func,\n            reverse=True)\n\n        return dict(app=app, tickets=tickets, method=method, db_ready=db_ready)\n\n\ndef get_ticket_storage(app):\n    private_folder = apath(\'%s/private\' % app, r=request)\n    ticket_file = os.path.join(private_folder, \'ticket_storage.txt\')\n    if os.path.exists(ticket_file):\n        db_string = open(ticket_file).read()\n        db_string = db_string.strip().replace(\'\\r\', \'\').replace(\'\\n\', \'\')\n    else:\n        return False\n    tickets_table = \'web2py_ticket\'\n    tablename = tickets_table + \'_\' + app\n    db_path = apath(\'%s/databases\' % app, r=request)\n    ticketsdb = DAL(db_string, folder=db_path, auto_import=True)\n    if not ticketsdb.get(tablename):\n        table = ticketsdb.define_table(\n            tablename,\n            Field(\'ticket_id\', length=100),\n            Field(\'ticket_data\', \'text\'),\n            Field(\'created_datetime\', \'datetime\'),\n        )\n    return ticketsdb, ticketsdb.get(tablename)\n\n\ndef make_link(path):\n    """ Create a link from a path """\n    tryFile = path.replace(\'\\\\\', \'/\')\n\n    if os.path.isabs(tryFile) and os.path.isfile(tryFile):\n        (folder, filename) = os.path.split(tryFile)\n        (base, ext) = os.path.splitext(filename)\n        app = get_app()\n\n        editable = {\'controllers\': \'.py\', \'models\': \'.py\', \'views\': \'.html\'}\n        for key in editable.keys():\n            check_extension = folder.endswith("%s/%s" % (app, key))\n            if ext.lower() == editable[key] and check_extension:\n                return A(\'"\' + tryFile + \'"\',\n                         _href=URL(r=request,\n                         f=\'edit/%s/%s/%s\' % (app, key, filename))).xml()\n    return \'\'\n\n\ndef make_links(traceback):\n    """ Make links using the given traceback """\n\n    lwords = traceback.split(\'"\')\n\n    # Making the short circuit compatible with <= python2.4\n    result = (len(lwords) != 0) and lwords[0] or \'\'\n\n    i = 1\n\n    while i < len(lwords):\n        link = make_link(lwords[i])\n\n        if link == \'\':\n            result += \'"\' + lwords[i]\n        else:\n            result += link\n\n            if i + 1 < len(lwords):\n                result += lwords[i + 1]\n                i = i + 1\n\n        i = i + 1\n\n    return result\n\n\nclass TRACEBACK(object):\n    """ Generate the traceback """\n\n    def __init__(self, text):\n        """ TRACEBACK constructor """\n\n        self.s = make_links(CODE(text).xml())\n\n    def xml(self):\n        """ Returns the xml """\n\n        return self.s\n\n\ndef ticket():\n    """ Ticket handler """\n\n    if len(request.args) != 2:\n        session.flash = T(\'invalid ticket\')\n        redirect(URL(\'site\'))\n\n    app = get_app()\n    myversion = request.env.web2py_version\n    ticket = request.args[1]\n    e = RestrictedError()\n    e.load(request, app, ticket)\n\n    return dict(app=app,\n                ticket=ticket,\n                output=e.output,\n                traceback=(e.traceback and TRACEBACK(e.traceback)),\n                snapshot=e.snapshot,\n                code=e.code,\n                layer=e.layer,\n                myversion=myversion)\n\n\ndef ticketdb():\n    """ Ticket handler """\n\n    if len(request.args) != 2:\n        session.flash = T(\'invalid ticket\')\n        redirect(URL(\'site\'))\n\n    app = get_app()\n    myversion = request.env.web2py_version\n    ticket = request.args[1]\n    e = RestrictedError()\n    request.tickets_db = get_ticket_storage(app)[0]\n    e.load(request, app, ticket)\n    response.view = \'default/ticket.html\'\n    return dict(app=app,\n                ticket=ticket,\n                output=e.output,\n                traceback=(e.traceback and TRACEBACK(e.traceback)),\n                snapshot=e.snapshot,\n                code=e.code,\n                layer=e.layer,\n                myversion=myversion)\n\n\ndef error():\n    """ Generate a ticket (for testing) """\n    raise RuntimeError(\'admin ticket generator at your service\')\n\n\ndef update_languages():\n    """ Update available languages """\n\n    app = get_app()\n    update_all_languages(apath(app, r=request))\n    session.flash = T(\'Language files (static strings) updated\')\n    redirect(URL(\'design\', args=app, anchor=\'languages\'))\n\n\ndef twitter():\n    session.forget()\n    session._unlock(response)\n    import gluon.tools\n    import gluon.contrib.simplejson as sj\n    try:\n        if TWITTER_HASH:\n            page = urllib.urlopen("http://search.twitter.com/search.json?q=%%40%s" % TWITTER_HASH).read()\n            data = sj.loads(page, encoding="utf-8")[\'results\']\n            d = dict()\n            for e in data:\n                d[e["id"]] = e\n            r = reversed(sorted(d))\n            return dict(tweets=[d[k] for k in r])\n        else:\n            return \'disabled\'\n    except Exception, e:\n        return DIV(T(\'Unable to download because:\'), BR(), str(e))\n\n\ndef user():\n    if MULTI_USER_MODE:\n        if not db(db.auth_user).count():\n            auth.settings.registration_requires_approval = False\n        return dict(form=auth())\n    else:\n        return dict(form=T("Disabled"))\n\n\ndef reload_routes():\n    """ Reload routes.py """\n    import gluon.rewrite\n    gluon.rewrite.load()\n    redirect(URL(\'site\'))\n\n\ndef manage_students():\n    if not (MULTI_USER_MODE and is_manager()):\n        session.flash = T(\'Not Authorized\')\n        redirect(URL(\'site\'))\n    db.auth_user.registration_key.writable = True\n    grid = SQLFORM.grid(db.auth_user)\n    return locals()\n\n\ndef bulk_register():\n    if not (MULTI_USER_MODE and is_manager()):\n        session.flash = T(\'Not Authorized\')\n        redirect(URL(\'site\'))\n    form = SQLFORM.factory(Field(\'emails\', \'text\'))\n    if form.process().accepted:\n        emails = [x.strip() for x in form.vars.emails.split(\'\\n\') if x.strip()]\n        n = 0\n        for email in emails:\n            if not db.auth_user(email=email):\n                n += db.auth_user.insert(email=email) and 1 or 0\n        session.flash = T(\'%s students registered\', n)\n        redirect(URL(\'site\'))\n    return locals()\n\n### Begin experimental stuff need fixes:\n# 1) should run in its own process - cannot os.chdir\n# 2) should not prompt user at console\n# 3) should give option to force commit and not reuqire manual merge\n\n\ndef git_pull():\n    """ Git Pull handler """\n    app = get_app()\n    if not have_git:\n        session.flash = GIT_MISSING\n        redirect(URL(\'site\'))\n    dialog = FORM.confirm(T(\'Pull\'),\n                          {T(\'Cancel\'): URL(\'site\')})\n    if dialog.accepted:\n        try:\n            repo = Repo(os.path.join(apath(r=request), app))\n            origin = repo.remotes.origin\n            origin.fetch()\n            origin.pull()\n            session.flash = T("Application updated via git pull")\n            redirect(URL(\'site\'))\n        except CheckoutError, message:\n            session.flash = T("Pull failed, certain files could not be checked out. Check logs for details.")\n            redirect(URL(\'site\'))\n        except UnmergedEntriesError:\n            session.flash = T("Pull is not possible because you have unmerged files. Fix them up in the work tree, and then try again.")\n            redirect(URL(\'site\'))\n        except AssertionError:\n            session.flash = T("Pull is not possible because you have unmerged files. Fix them up in the work tree, and then try again.")\n            redirect(URL(\'site\'))\n        except GitCommandError, status:\n            session.flash = T(\n                "Pull failed, git exited abnormally. See logs for details.")\n            redirect(URL(\'site\'))\n        except Exception, e:\n            session.flash = T(\n                "Pull failed, git exited abnormally. See logs for details.")\n            redirect(URL(\'site\'))\n    elif \'cancel\' in request.vars:\n        redirect(URL(\'site\'))\n    return dict(app=app, dialog=dialog)\n\n\ndef git_push():\n    """ Git Push handler """\n    app = get_app()\n    if not have_git:\n        session.flash = GIT_MISSING\n        redirect(URL(\'site\'))\n    form = SQLFORM.factory(Field(\'changelog\', requires=IS_NOT_EMPTY()))\n    form.element(\'input[type=submit]\')[\'_value\'] = T(\'Push\')\n    form.add_button(T(\'Cancel\'), URL(\'site\'))\n    form.process()\n    if form.accepted:\n        try:\n            repo = Repo(os.path.join(apath(r=request), app))\n            index = repo.index\n            index.add([apath(r=request) + app + \'/*\'])\n            new_commit = index.commit(form.vars.changelog)\n            origin = repo.remotes.origin\n            origin.push()\n            session.flash = T(\n                "Git repo updated with latest application changes.")\n            redirect(URL(\'site\'))\n        except UnmergedEntriesError:\n            session.flash = T("Push failed, there are unmerged entries in the cache. Resolve merge issues manually and try again.")\n            redirect(URL(\'site\'))\n        except Exception, e:\n            session.flash = T(\n                "Push failed, git exited abnormally. See logs for details.")\n            redirect(URL(\'site\'))\n    return dict(app=app, form=form)\n\nresponse._vars=response._caller(design)\n'
p7
sS'snapshot'
p8
(dp9
S'exception'
p10
(dp11
S'__getslice__'
p12
S"<method-wrapper '__getslice__' of exceptions.OSError object>"
p13
sS'__str__'
p14
S"<method-wrapper '__str__' of exceptions.OSError object>"
p15
sS'__reduce__'
p16
S'<built-in method __reduce__ of exceptions.OSError object>'
p17
sS'__dict__'
p18
S'{}'
p19
sS'__sizeof__'
p20
S'<built-in method __sizeof__ of exceptions.OSError object>'
p21
sS'__init__'
p22
S"<method-wrapper '__init__' of exceptions.OSError object>"
p23
sS'__setattr__'
p24
S"<method-wrapper '__setattr__' of exceptions.OSError object>"
p25
sS'__reduce_ex__'
p26
S'<built-in method __reduce_ex__ of exceptions.OSError object>'
p27
sS'__new__'
p28
S'<built-in method __new__ of type object>'
p29
sS'errno'
p30
S'2'
sS'__format__'
p31
S'<built-in method __format__ of exceptions.OSError object>'
p32
sS'__class__'
p33
S"<type 'exceptions.OSError'>"
p34
sS'filename'
p35
S"'/opt/smb4manager/applications/dashboard/languages/languages'"
p36
sS'__doc__'
p37
S"'OS system call failed.'"
p38
sS'__getitem__'
p39
S"<method-wrapper '__getitem__' of exceptions.OSError object>"
p40
sS'__setstate__'
p41
S'<built-in method __setstate__ of exceptions.OSError object>'
p42
sS'__getattribute__'
p43
S"<method-wrapper '__getattribute__' of exceptions.OSError object>"
p44
sS'args'
p45
S"(2, 'No such file or directory')"
p46
sS'__subclasshook__'
p47
S'<built-in method __subclasshook__ of type object>'
p48
sS'__unicode__'
p49
S'<built-in method __unicode__ of exceptions.OSError object>'
p50
sS'strerror'
p51
S"'No such file or directory'"
p52
sS'__delattr__'
p53
S"<method-wrapper '__delattr__' of exceptions.OSError object>"
p54
sS'__repr__'
p55
S"<method-wrapper '__repr__' of exceptions.OSError object>"
p56
sS'__hash__'
p57
S"<method-wrapper '__hash__' of exceptions.OSError object>"
p58
ssS'evalue'
p59
S"[Errno 2] No such file or directory: '/opt/smb4manager/applications/dashboard/languages/languages'"
p60
sS'request'
p61
ccopy_reg
_reconstructor
p62
(cgluon.html
BEAUTIFY
p63
c__builtin__
object
p64
NtRp65
(dp66
S'attributes'
p67
(dp68
sS'components'
p69
(lp70
g62
(cgluon.html
TABLE
p71
g64
NtRp72
(dp73
g67
(dp74
S'level'
p75
I5
ssS'parent'
p76
Nsg69
(lp77
g62
(cgluon.html
TR
p78
g64
NtRp79
(dp80
g67
(dp81
sg76
g72
sg69
(lp82
g62
(cgluon.html
TD
p83
g64
NtRp84
(dp85
g67
(dp86
S'_style'
p87
S'font-weight:bold;vertical-align:top'
p88
ssg76
g79
sg69
(lp89
S'ajax'
p90
asbag62
(g83
g64
NtRp91
(dp92
g67
(dp93
S'_valign'
p94
S'top'
p95
ssg76
g79
sg69
(lp96
S':'
asbag62
(g83
g64
NtRp97
(dp98
g67
(dp99
sg76
g79
sg69
(lp100
g62
(g63
g64
NtRp101
(dp102
g67
(dp103
g75
I5
ssg76
g97
sg69
(lp104
S'False'
p105
asbasbasbag62
(g78
g64
NtRp106
(dp107
g67
(dp108
sg76
g72
sg69
(lp109
g62
(g83
g64
NtRp110
(dp111
g67
(dp112
g87
g88
ssg76
g106
sg69
(lp113
S'application'
p114
asbag62
(g83
g64
NtRp115
(dp116
g67
(dp117
g94
g95
ssg76
g106
sg69
(lp118
S':'
asbag62
(g83
g64
NtRp119
(dp120
g67
(dp121
sg76
g106
sg69
(lp122
g62
(g63
g64
NtRp123
(dp124
g67
(dp125
g75
I5
ssg76
g119
sg69
(lp126
S'admin'
p127
asbasbasbag62
(g78
g64
NtRp128
(dp129
g67
(dp130
sg76
g72
sg69
(lp131
g62
(g83
g64
NtRp132
(dp133
g67
(dp134
g87
g88
ssg76
g128
sg69
(lp135
g45
asbag62
(g83
g64
NtRp136
(dp137
g67
(dp138
g94
g95
ssg76
g128
sg69
(lp139
S':'
asbag62
(g83
g64
NtRp140
(dp141
g67
(dp142
sg76
g128
sg69
(lp143
g62
(g63
g64
NtRp144
(dp145
g67
(dp146
g75
I5
ssg76
g140
sg69
(lp147
g62
(g71
g64
NtRp148
(dp149
g67
(dp150
g75
I4
ssg76
Nsg69
(lp151
g62
(g78
g64
NtRp152
(dp153
g67
(dp154
sg76
g148
sg69
(lp155
g62
(g83
g64
NtRp156
(dp157
g67
(dp158
sg76
g152
sg69
(lp159
g62
(g63
g64
NtRp160
(dp161
g67
(dp162
g75
I4
ssg76
g156
sg69
(lp163
S'dashboard'
p164
asbasbasbasbasbasbasbag62
(g78
g64
NtRp165
(dp166
g67
(dp167
sg76
g72
sg69
(lp168
g62
(g83
g64
NtRp169
(dp170
g67
(dp171
g87
g88
ssg76
g165
sg69
(lp172
S'body'
p173
asbag62
(g83
g64
NtRp174
(dp175
g67
(dp176
g94
g95
ssg76
g165
sg69
(lp177
S':'
asbag62
(g83
g64
NtRp178
(dp179
g67
(dp180
sg76
g165
sg69
(lp181
g62
(g63
g64
NtRp182
(dp183
g67
(dp184
g75
I5
ssg76
g178
sg69
(lp185
S'<cStringIO.StringO object at 0x961f600>'
p186
asbasbasbag62
(g78
g64
NtRp187
(dp188
g67
(dp189
sg76
g72
sg69
(lp190
g62
(g83
g64
NtRp191
(dp192
g67
(dp193
g87
g88
ssg76
g187
sg69
(lp194
S'cid'
p195
asbag62
(g83
g64
NtRp196
(dp197
g67
(dp198
g94
g95
ssg76
g187
sg69
(lp199
S':'
asbag62
(g83
g64
NtRp200
(dp201
g67
(dp202
sg76
g187
sg69
(lp203
g62
(g63
g64
NtRp204
(dp205
g67
(dp206
g75
I5
ssg76
g200
sg69
(lp207
S'None'
p208
asbasbasbag62
(g78
g64
NtRp209
(dp210
g67
(dp211
sg76
g72
sg69
(lp212
g62
(g83
g64
NtRp213
(dp214
g67
(dp215
g87
g88
ssg76
g209
sg69
(lp216
S'client'
p217
asbag62
(g83
g64
NtRp218
(dp219
g67
(dp220
g94
g95
ssg76
g209
sg69
(lp221
S':'
asbag62
(g83
g64
NtRp222
(dp223
g67
(dp224
sg76
g209
sg69
(lp225
g62
(g63
g64
NtRp226
(dp227
g67
(dp228
g75
I5
ssg76
g222
sg69
(lp229
S'192.168.20.23'
p230
asbasbasbag62
(g78
g64
NtRp231
(dp232
g67
(dp233
sg76
g72
sg69
(lp234
g62
(g83
g64
NtRp235
(dp236
g67
(dp237
g87
g88
ssg76
g231
sg69
(lp238
S'controller'
p239
asbag62
(g83
g64
NtRp240
(dp241
g67
(dp242
g94
g95
ssg76
g231
sg69
(lp243
S':'
asbag62
(g83
g64
NtRp244
(dp245
g67
(dp246
sg76
g231
sg69
(lp247
g62
(g63
g64
NtRp248
(dp249
g67
(dp250
g75
I5
ssg76
g244
sg69
(lp251
S'default'
p252
asbasbasbag62
(g78
g64
NtRp253
(dp254
g67
(dp255
sg76
g72
sg69
(lp256
g62
(g83
g64
NtRp257
(dp258
g67
(dp259
g87
g88
ssg76
g253
sg69
(lp260
S'cookies'
p261
asbag62
(g83
g64
NtRp262
(dp263
g67
(dp264
g94
g95
ssg76
g253
sg69
(lp265
S':'
asbag62
(g83
g64
NtRp266
(dp267
g67
(dp268
sg76
g253
sg69
(lp269
g62
(g63
g64
NtRp270
(dp271
g67
(dp272
g75
I5
ssg76
g266
sg69
(lp273
g62
(g71
g64
NtRp274
(dp275
g67
(dp276
g75
I4
ssg76
Nsg69
(lp277
g62
(g78
g64
NtRp278
(dp279
g67
(dp280
sg76
g274
sg69
(lp281
g62
(g83
g64
NtRp282
(dp283
g67
(dp284
g87
g88
ssg76
g278
sg69
(lp285
S'session_id_admin'
p286
asbag62
(g83
g64
NtRp287
(dp288
g67
(dp289
g94
g95
ssg76
g278
sg69
(lp290
S':'
asbag62
(g83
g64
NtRp291
(dp292
g67
(dp293
sg76
g278
sg69
(lp294
g62
(g63
g64
NtRp295
(dp296
g67
(dp297
g75
I4
ssg76
g291
sg69
(lp298
S'192.168.20.23-bb6d7022-37ea-42bf-aba2-3cf5b4b8fb51'
p299
ag62
(g71
g64
NtRp300
(dp301
g67
(dp302
g75
I3
ssg76
Nsg69
(lp303
g62
(g78
g64
NtRp304
(dp305
g67
(dp306
sg76
g300
sg69
(lp307
g62
(g83
g64
NtRp308
(dp309
g67
(dp310
g87
g88
ssg76
g304
sg69
(lp311
S'comment'
p312
asbag62
(g83
g64
NtRp313
(dp314
g67
(dp315
g94
g95
ssg76
g304
sg69
(lp316
S':'
asbag62
(g83
g64
NtRp317
(dp318
g67
(dp319
sg76
g304
sg69
(lp320
g62
(g63
g64
NtRp321
(dp322
g67
(dp323
g75
I3
ssg76
g317
sg69
(lp324
S''
asbasbasbag62
(g78
g64
NtRp325
(dp326
g67
(dp327
sg76
g300
sg69
(lp328
g62
(g83
g64
NtRp329
(dp330
g67
(dp331
g87
g88
ssg76
g325
sg69
(lp332
S'domain'
p333
asbag62
(g83
g64
NtRp334
(dp335
g67
(dp336
g94
g95
ssg76
g325
sg69
(lp337
S':'
asbag62
(g83
g64
NtRp338
(dp339
g67
(dp340
sg76
g325
sg69
(lp341
g62
(g63
g64
NtRp342
(dp343
g67
(dp344
g75
I3
ssg76
g338
sg69
(lp345
S''
asbasbasbag62
(g78
g64
NtRp346
(dp347
g67
(dp348
sg76
g300
sg69
(lp349
g62
(g83
g64
NtRp350
(dp351
g67
(dp352
g87
g88
ssg76
g346
sg69
(lp353
S'expires'
p354
asbag62
(g83
g64
NtRp355
(dp356
g67
(dp357
g94
g95
ssg76
g346
sg69
(lp358
S':'
asbag62
(g83
g64
NtRp359
(dp360
g67
(dp361
sg76
g346
sg69
(lp362
g62
(g63
g64
NtRp363
(dp364
g67
(dp365
g75
I3
ssg76
g359
sg69
(lp366
S''
asbasbasbag62
(g78
g64
NtRp367
(dp368
g67
(dp369
sg76
g300
sg69
(lp370
g62
(g83
g64
NtRp371
(dp372
g67
(dp373
g87
g88
ssg76
g367
sg69
(lp374
S'httponly'
p375
asbag62
(g83
g64
NtRp376
(dp377
g67
(dp378
g94
g95
ssg76
g367
sg69
(lp379
S':'
asbag62
(g83
g64
NtRp380
(dp381
g67
(dp382
sg76
g367
sg69
(lp383
g62
(g63
g64
NtRp384
(dp385
g67
(dp386
g75
I3
ssg76
g380
sg69
(lp387
S''
asbasbasbag62
(g78
g64
NtRp388
(dp389
g67
(dp390
sg76
g300
sg69
(lp391
g62
(g83
g64
NtRp392
(dp393
g67
(dp394
g87
g88
ssg76
g388
sg69
(lp395
S'max-age'
p396
asbag62
(g83
g64
NtRp397
(dp398
g67
(dp399
g94
g95
ssg76
g388
sg69
(lp400
S':'
asbag62
(g83
g64
NtRp401
(dp402
g67
(dp403
sg76
g388
sg69
(lp404
g62
(g63
g64
NtRp405
(dp406
g67
(dp407
g75
I3
ssg76
g401
sg69
(lp408
S''
asbasbasbag62
(g78
g64
NtRp409
(dp410
g67
(dp411
sg76
g300
sg69
(lp412
g62
(g83
g64
NtRp413
(dp414
g67
(dp415
g87
g88
ssg76
g409
sg69
(lp416
S'path'
p417
asbag62
(g83
g64
NtRp418
(dp419
g67
(dp420
g94
g95
ssg76
g409
sg69
(lp421
S':'
asbag62
(g83
g64
NtRp422
(dp423
g67
(dp424
sg76
g409
sg69
(lp425
g62
(g63
g64
NtRp426
(dp427
g67
(dp428
g75
I3
ssg76
g422
sg69
(lp429
S''
asbasbasbag62
(g78
g64
NtRp430
(dp431
g67
(dp432
sg76
g300
sg69
(lp433
g62
(g83
g64
NtRp434
(dp435
g67
(dp436
g87
g88
ssg76
g430
sg69
(lp437
S'secure'
p438
asbag62
(g83
g64
NtRp439
(dp440
g67
(dp441
g94
g95
ssg76
g430
sg69
(lp442
S':'
asbag62
(g83
g64
NtRp443
(dp444
g67
(dp445
sg76
g430
sg69
(lp446
g62
(g63
g64
NtRp447
(dp448
g67
(dp449
g75
I3
ssg76
g443
sg69
(lp450
S''
asbasbasbag62
(g78
g64
NtRp451
(dp452
g67
(dp453
sg76
g300
sg69
(lp454
g62
(g83
g64
NtRp455
(dp456
g67
(dp457
g87
g88
ssg76
g451
sg69
(lp458
S'version'
p459
asbag62
(g83
g64
NtRp460
(dp461
g67
(dp462
g94
g95
ssg76
g451
sg69
(lp463
S':'
asbag62
(g83
g64
NtRp464
(dp465
g67
(dp466
sg76
g451
sg69
(lp467
g62
(g63
g64
NtRp468
(dp469
g67
(dp470
g75
I3
ssg76
g464
sg69
(lp471
S''
asbasbasbasbasbasbasbag62
(g78
g64
NtRp472
(dp473
g67
(dp474
sg76
g274
sg69
(lp475
g62
(g83
g64
NtRp476
(dp477
g67
(dp478
g87
g88
ssg76
g472
sg69
(lp479
S'session_id_dashboard'
p480
asbag62
(g83
g64
NtRp481
(dp482
g67
(dp483
g94
g95
ssg76
g472
sg69
(lp484
S':'
asbag62
(g83
g64
NtRp485
(dp486
g67
(dp487
sg76
g472
sg69
(lp488
g62
(g63
g64
NtRp489
(dp490
g67
(dp491
g75
I4
ssg76
g485
sg69
(lp492
S'192.168.20.23-65f160e7-fe40-46eb-a955-5731b27c67c6'
p493
ag62
(g71
g64
NtRp494
(dp495
g67
(dp496
g75
I3
ssg76
Nsg69
(lp497
g62
(g78
g64
NtRp498
(dp499
g67
(dp500
sg76
g494
sg69
(lp501
g62
(g83
g64
NtRp502
(dp503
g67
(dp504
g87
g88
ssg76
g498
sg69
(lp505
g312
asbag62
(g83
g64
NtRp506
(dp507
g67
(dp508
g94
g95
ssg76
g498
sg69
(lp509
S':'
asbag62
(g83
g64
NtRp510
(dp511
g67
(dp512
sg76
g498
sg69
(lp513
g62
(g63
g64
NtRp514
(dp515
g67
(dp516
g75
I3
ssg76
g510
sg69
(lp517
S''
asbasbasbag62
(g78
g64
NtRp518
(dp519
g67
(dp520
sg76
g494
sg69
(lp521
g62
(g83
g64
NtRp522
(dp523
g67
(dp524
g87
g88
ssg76
g518
sg69
(lp525
g333
asbag62
(g83
g64
NtRp526
(dp527
g67
(dp528
g94
g95
ssg76
g518
sg69
(lp529
S':'
asbag62
(g83
g64
NtRp530
(dp531
g67
(dp532
sg76
g518
sg69
(lp533
g62
(g63
g64
NtRp534
(dp535
g67
(dp536
g75
I3
ssg76
g530
sg69
(lp537
S''
asbasbasbag62
(g78
g64
NtRp538
(dp539
g67
(dp540
sg76
g494
sg69
(lp541
g62
(g83
g64
NtRp542
(dp543
g67
(dp544
g87
g88
ssg76
g538
sg69
(lp545
g354
asbag62
(g83
g64
NtRp546
(dp547
g67
(dp548
g94
g95
ssg76
g538
sg69
(lp549
S':'
asbag62
(g83
g64
NtRp550
(dp551
g67
(dp552
sg76
g538
sg69
(lp553
g62
(g63
g64
NtRp554
(dp555
g67
(dp556
g75
I3
ssg76
g550
sg69
(lp557
S''
asbasbasbag62
(g78
g64
NtRp558
(dp559
g67
(dp560
sg76
g494
sg69
(lp561
g62
(g83
g64
NtRp562
(dp563
g67
(dp564
g87
g88
ssg76
g558
sg69
(lp565
g375
asbag62
(g83
g64
NtRp566
(dp567
g67
(dp568
g94
g95
ssg76
g558
sg69
(lp569
S':'
asbag62
(g83
g64
NtRp570
(dp571
g67
(dp572
sg76
g558
sg69
(lp573
g62
(g63
g64
NtRp574
(dp575
g67
(dp576
g75
I3
ssg76
g570
sg69
(lp577
S''
asbasbasbag62
(g78
g64
NtRp578
(dp579
g67
(dp580
sg76
g494
sg69
(lp581
g62
(g83
g64
NtRp582
(dp583
g67
(dp584
g87
g88
ssg76
g578
sg69
(lp585
g396
asbag62
(g83
g64
NtRp586
(dp587
g67
(dp588
g94
g95
ssg76
g578
sg69
(lp589
S':'
asbag62
(g83
g64
NtRp590
(dp591
g67
(dp592
sg76
g578
sg69
(lp593
g62
(g63
g64
NtRp594
(dp595
g67
(dp596
g75
I3
ssg76
g590
sg69
(lp597
S''
asbasbasbag62
(g78
g64
NtRp598
(dp599
g67
(dp600
sg76
g494
sg69
(lp601
g62
(g83
g64
NtRp602
(dp603
g67
(dp604
g87
g88
ssg76
g598
sg69
(lp605
g417
asbag62
(g83
g64
NtRp606
(dp607
g67
(dp608
g94
g95
ssg76
g598
sg69
(lp609
S':'
asbag62
(g83
g64
NtRp610
(dp611
g67
(dp612
sg76
g598
sg69
(lp613
g62
(g63
g64
NtRp614
(dp615
g67
(dp616
g75
I3
ssg76
g610
sg69
(lp617
S''
asbasbasbag62
(g78
g64
NtRp618
(dp619
g67
(dp620
sg76
g494
sg69
(lp621
g62
(g83
g64
NtRp622
(dp623
g67
(dp624
g87
g88
ssg76
g618
sg69
(lp625
g438
asbag62
(g83
g64
NtRp626
(dp627
g67
(dp628
g94
g95
ssg76
g618
sg69
(lp629
S':'
asbag62
(g83
g64
NtRp630
(dp631
g67
(dp632
sg76
g618
sg69
(lp633
g62
(g63
g64
NtRp634
(dp635
g67
(dp636
g75
I3
ssg76
g630
sg69
(lp637
S''
asbasbasbag62
(g78
g64
NtRp638
(dp639
g67
(dp640
sg76
g494
sg69
(lp641
g62
(g83
g64
NtRp642
(dp643
g67
(dp644
g87
g88
ssg76
g638
sg69
(lp645
g459
asbag62
(g83
g64
NtRp646
(dp647
g67
(dp648
g94
g95
ssg76
g638
sg69
(lp649
S':'
asbag62
(g83
g64
NtRp650
(dp651
g67
(dp652
sg76
g638
sg69
(lp653
g62
(g63
g64
NtRp654
(dp655
g67
(dp656
g75
I3
ssg76
g650
sg69
(lp657
S''
asbasbasbasbasbasbasbasbasbasbasbag62
(g78
g64
NtRp658
(dp659
g67
(dp660
sg76
g72
sg69
(lp661
g62
(g83
g64
NtRp662
(dp663
g67
(dp664
g87
g88
ssg76
g658
sg69
(lp665
S'env'
p666
asbag62
(g83
g64
NtRp667
(dp668
g67
(dp669
g94
g95
ssg76
g658
sg69
(lp670
S':'
asbag62
(g83
g64
NtRp671
(dp672
g67
(dp673
sg76
g658
sg69
(lp674
g62
(g63
g64
NtRp675
(dp676
g67
(dp677
g75
I5
ssg76
g671
sg69
(lp678
g62
(g71
g64
NtRp679
(dp680
g67
(dp681
g75
I4
ssg76
Nsg69
(lp682
g62
(g78
g64
NtRp683
(dp684
g67
(dp685
sg76
g679
sg69
(lp686
g62
(g83
g64
NtRp687
(dp688
g67
(dp689
g87
g88
ssg76
g683
sg69
(lp690
S'app_folders'
p691
asbag62
(g83
g64
NtRp692
(dp693
g67
(dp694
g94
g95
ssg76
g683
sg69
(lp695
S':'
asbag62
(g83
g64
NtRp696
(dp697
g67
(dp698
sg76
g683
sg69
(lp699
g62
(g63
g64
NtRp700
(dp701
g67
(dp702
g75
I4
ssg76
g696
sg69
(lp703
S"set(['/opt/smb4manager/applications/admin/', '/opt/smb4manager/applications/dashboard/'])"
p704
asbasbasbag62
(g78
g64
NtRp705
(dp706
g67
(dp707
sg76
g679
sg69
(lp708
g62
(g83
g64
NtRp709
(dp710
g67
(dp711
g87
g88
ssg76
g705
sg69
(lp712
S'applications_parent'
p713
asbag62
(g83
g64
NtRp714
(dp715
g67
(dp716
g94
g95
ssg76
g705
sg69
(lp717
S':'
asbag62
(g83
g64
NtRp718
(dp719
g67
(dp720
sg76
g705
sg69
(lp721
g62
(g63
g64
NtRp722
(dp723
g67
(dp724
g75
I4
ssg76
g718
sg69
(lp725
S'/opt/smb4manager'
p726
asbasbasbag62
(g78
g64
NtRp727
(dp728
g67
(dp729
sg76
g679
sg69
(lp730
g62
(g83
g64
NtRp731
(dp732
g67
(dp733
g87
g88
ssg76
g727
sg69
(lp734
S'cmd_args'
p735
asbag62
(g83
g64
NtRp736
(dp737
g67
(dp738
g94
g95
ssg76
g727
sg69
(lp739
S':'
asbag62
(g83
g64
NtRp740
(dp741
g67
(dp742
sg76
g727
sg69
(lp743
g62
(g63
g64
NtRp744
(dp745
g67
(dp746
g75
I4
ssg76
g740
sg69
(lp747
g62
(g71
g64
NtRp748
(dp749
g67
(dp750
g75
I3
ssg76
Nsg69
(lp751
sbasbasbasbag62
(g78
g64
NtRp752
(dp753
g67
(dp754
sg76
g679
sg69
(lp755
g62
(g83
g64
NtRp756
(dp757
g67
(dp758
g87
g88
ssg76
g752
sg69
(lp759
S'cmd_options'
p760
asbag62
(g83
g64
NtRp761
(dp762
g67
(dp763
g94
g95
ssg76
g752
sg69
(lp764
S':'
asbag62
(g83
g64
NtRp765
(dp766
g67
(dp767
sg76
g752
sg69
(lp768
g62
(g63
g64
NtRp769
(dp770
g67
(dp771
g75
I4
ssg76
g765
sg69
(lp772
S"<Values at 0x8d7236c: {'verbose': False, 'ip': '0.0.0.0', 'with_scheduler': False, 'ips': ['127.0.0.2'], 'shutdown_timeout': 5, 'taskbar': False, 'port': 8010, 'maxthreads': None, 'softcron': False, 'server_name': 'adm', 'bpython': False, 'nogui': True, 'pid_filename': 'httpserver.pid', 'extcron': False, 'runcron': False, 'run_system_tests': False, 'test': None, 'folder': '/opt/smb4manager', 'config': '', 'import_models': False, 'winservice': '', 'shell': None, 'run': '', 'log_filename': 'httpserver.log', 'debuglevel': 100, 'args': [''], 'socket_timeout': 5, 'ssl_ca_certificate': None, 'scheduler': None, 'profiler_filename': None, 'ssl_private_key': 'ssl/server.key', 'scheduler_groups': None, 'password': 'smb4manager', 'request_queue_size': 5, 'ssl_certificate': 'ssl/server.crt', 'cronjob': False, 'numthreads': None, 'quiet': False, 'interfaces': None, 'minthreads': None, 'timeout': 10, 'plain': False, 'nobanner': False}>"
p773
asbasbasbag62
(g78
g64
NtRp774
(dp775
g67
(dp776
sg76
g679
sg69
(lp777
g62
(g83
g64
NtRp778
(dp779
g67
(dp780
g87
g88
ssg76
g774
sg69
(lp781
S'db_sessions'
p782
asbag62
(g83
g64
NtRp783
(dp784
g67
(dp785
g94
g95
ssg76
g774
sg69
(lp786
S':'
asbag62
(g83
g64
NtRp787
(dp788
g67
(dp789
sg76
g774
sg69
(lp790
g62
(g63
g64
NtRp791
(dp792
g67
(dp793
g75
I4
ssg76
g787
sg69
(lp794
S'set([])'
p795
asbasbasbag62
(g78
g64
NtRp796
(dp797
g67
(dp798
sg76
g679
sg69
(lp799
g62
(g83
g64
NtRp800
(dp801
g67
(dp802
g87
g88
ssg76
g796
sg69
(lp803
S'debugging'
p804
asbag62
(g83
g64
NtRp805
(dp806
g67
(dp807
g94
g95
ssg76
g796
sg69
(lp808
S':'
asbag62
(g83
g64
NtRp809
(dp810
g67
(dp811
sg76
g796
sg69
(lp812
g62
(g63
g64
NtRp813
(dp814
g67
(dp815
g75
I4
ssg76
g809
sg69
(lp816
g105
asbasbasbag62
(g78
g64
NtRp817
(dp818
g67
(dp819
sg76
g679
sg69
(lp820
g62
(g83
g64
NtRp821
(dp822
g67
(dp823
g87
g88
ssg76
g817
sg69
(lp824
S'gluon_parent'
p825
asbag62
(g83
g64
NtRp826
(dp827
g67
(dp828
g94
g95
ssg76
g817
sg69
(lp829
S':'
asbag62
(g83
g64
NtRp830
(dp831
g67
(dp832
sg76
g817
sg69
(lp833
g62
(g63
g64
NtRp834
(dp835
g67
(dp836
g75
I4
ssg76
g830
sg69
(lp837
S'/opt/smb4manager'
p838
asbasbasbag62
(g78
g64
NtRp839
(dp840
g67
(dp841
sg76
g679
sg69
(lp842
g62
(g83
g64
NtRp843
(dp844
g67
(dp845
g87
g88
ssg76
g839
sg69
(lp846
S'http_accept'
p847
asbag62
(g83
g64
NtRp848
(dp849
g67
(dp850
g94
g95
ssg76
g839
sg69
(lp851
S':'
asbag62
(g83
g64
NtRp852
(dp853
g67
(dp854
sg76
g839
sg69
(lp855
g62
(g63
g64
NtRp856
(dp857
g67
(dp858
g75
I4
ssg76
g852
sg69
(lp859
S'text/html,application/xhtml+xml,application/xml;q=0.9,*/*;q=0.8'
p860
asbasbasbag62
(g78
g64
NtRp861
(dp862
g67
(dp863
sg76
g679
sg69
(lp864
g62
(g83
g64
NtRp865
(dp866
g67
(dp867
g87
g88
ssg76
g861
sg69
(lp868
S'http_accept_encoding'
p869
asbag62
(g83
g64
NtRp870
(dp871
g67
(dp872
g94
g95
ssg76
g861
sg69
(lp873
S':'
asbag62
(g83
g64
NtRp874
(dp875
g67
(dp876
sg76
g861
sg69
(lp877
g62
(g63
g64
NtRp878
(dp879
g67
(dp880
g75
I4
ssg76
g874
sg69
(lp881
S'gzip, deflate'
p882
asbasbasbag62
(g78
g64
NtRp883
(dp884
g67
(dp885
sg76
g679
sg69
(lp886
g62
(g83
g64
NtRp887
(dp888
g67
(dp889
g87
g88
ssg76
g883
sg69
(lp890
S'http_accept_language'
p891
asbag62
(g83
g64
NtRp892
(dp893
g67
(dp894
g94
g95
ssg76
g883
sg69
(lp895
S':'
asbag62
(g83
g64
NtRp896
(dp897
g67
(dp898
sg76
g883
sg69
(lp899
g62
(g63
g64
NtRp900
(dp901
g67
(dp902
g75
I4
ssg76
g896
sg69
(lp903
S'pt-BR,pt;q=0.8,en-US;q=0.5,en;q=0.3'
p904
asbasbasbag62
(g78
g64
NtRp905
(dp906
g67
(dp907
sg76
g679
sg69
(lp908
g62
(g83
g64
NtRp909
(dp910
g67
(dp911
g87
g88
ssg76
g905
sg69
(lp912
S'http_connection'
p913
asbag62
(g83
g64
NtRp914
(dp915
g67
(dp916
g94
g95
ssg76
g905
sg69
(lp917
S':'
asbag62
(g83
g64
NtRp918
(dp919
g67
(dp920
sg76
g905
sg69
(lp921
g62
(g63
g64
NtRp922
(dp923
g67
(dp924
g75
I4
ssg76
g918
sg69
(lp925
S'keep-alive'
p926
asbasbasbag62
(g78
g64
NtRp927
(dp928
g67
(dp929
sg76
g679
sg69
(lp930
g62
(g83
g64
NtRp931
(dp932
g67
(dp933
g87
g88
ssg76
g927
sg69
(lp934
S'http_cookie'
p935
asbag62
(g83
g64
NtRp936
(dp937
g67
(dp938
g94
g95
ssg76
g927
sg69
(lp939
S':'
asbag62
(g83
g64
NtRp940
(dp941
g67
(dp942
sg76
g927
sg69
(lp943
g62
(g63
g64
NtRp944
(dp945
g67
(dp946
g75
I4
ssg76
g940
sg69
(lp947
S'session_id_dashboard=192.168.20.23-65f160e7-fe40-46eb-a955-5731b27c67c6; session_id_admin=192.168.20.23-bb6d7022-37ea-42bf-aba2-3cf5b4b8fb51'
p948
asbasbasbag62
(g78
g64
NtRp949
(dp950
g67
(dp951
sg76
g679
sg69
(lp952
g62
(g83
g64
NtRp953
(dp954
g67
(dp955
g87
g88
ssg76
g949
sg69
(lp956
S'http_host'
p957
asbag62
(g83
g64
NtRp958
(dp959
g67
(dp960
g94
g95
ssg76
g949
sg69
(lp961
S':'
asbag62
(g83
g64
NtRp962
(dp963
g67
(dp964
sg76
g949
sg69
(lp965
g62
(g63
g64
NtRp966
(dp967
g67
(dp968
g75
I4
ssg76
g962
sg69
(lp969
S'192.168.20.200:8010'
p970
asbasbasbag62
(g78
g64
NtRp971
(dp972
g67
(dp973
sg76
g679
sg69
(lp974
g62
(g83
g64
NtRp975
(dp976
g67
(dp977
g87
g88
ssg76
g971
sg69
(lp978
S'http_referer'
p979
asbag62
(g83
g64
NtRp980
(dp981
g67
(dp982
g94
g95
ssg76
g971
sg69
(lp983
S':'
asbag62
(g83
g64
NtRp984
(dp985
g67
(dp986
sg76
g971
sg69
(lp987
g62
(g63
g64
NtRp988
(dp989
g67
(dp990
g75
I4
ssg76
g984
sg69
(lp991
S'https://192.168.20.200:8010/admin/site'
p992
asbasbasbag62
(g78
g64
NtRp993
(dp994
g67
(dp995
sg76
g679
sg69
(lp996
g62
(g83
g64
NtRp997
(dp998
g67
(dp999
g87
g88
ssg76
g993
sg69
(lp1000
S'http_user_agent'
p1001
asbag62
(g83
g64
NtRp1002
(dp1003
g67
(dp1004
g94
g95
ssg76
g993
sg69
(lp1005
S':'
asbag62
(g83
g64
NtRp1006
(dp1007
g67
(dp1008
sg76
g993
sg69
(lp1009
g62
(g63
g64
NtRp1010
(dp1011
g67
(dp1012
g75
I4
ssg76
g1006
sg69
(lp1013
S'Mozilla/5.0 (X11; Ubuntu; Linux x86_64; rv:18.0) Gecko/20100101 Firefox/18.0'
p1014
asbasbasbag62
(g78
g64
NtRp1015
(dp1016
g67
(dp1017
sg76
g679
sg69
(lp1018
g62
(g83
g64
NtRp1019
(dp1020
g67
(dp1021
g87
g88
ssg76
g1015
sg69
(lp1022
S'https'
p1023
asbag62
(g83
g64
NtRp1024
(dp1025
g67
(dp1026
g94
g95
ssg76
g1015
sg69
(lp1027
S':'
asbag62
(g83
g64
NtRp1028
(dp1029
g67
(dp1030
sg76
g1015
sg69
(lp1031
g62
(g63
g64
NtRp1032
(dp1033
g67
(dp1034
g75
I4
ssg76
g1028
sg69
(lp1035
S'on'
p1036
asbasbasbag62
(g78
g64
NtRp1037
(dp1038
g67
(dp1039
sg76
g679
sg69
(lp1040
g62
(g83
g64
NtRp1041
(dp1042
g67
(dp1043
g87
g88
ssg76
g1037
sg69
(lp1044
S'is_jython'
p1045
asbag62
(g83
g64
NtRp1046
(dp1047
g67
(dp1048
g94
g95
ssg76
g1037
sg69
(lp1049
S':'
asbag62
(g83
g64
NtRp1050
(dp1051
g67
(dp1052
sg76
g1037
sg69
(lp1053
g62
(g63
g64
NtRp1054
(dp1055
g67
(dp1056
g75
I4
ssg76
g1050
sg69
(lp1057
g105
asbasbasbag62
(g78
g64
NtRp1058
(dp1059
g67
(dp1060
sg76
g679
sg69
(lp1061
g62
(g83
g64
NtRp1062
(dp1063
g67
(dp1064
g87
g88
ssg76
g1058
sg69
(lp1065
S'is_pypy'
p1066
asbag62
(g83
g64
NtRp1067
(dp1068
g67
(dp1069
g94
g95
ssg76
g1058
sg69
(lp1070
S':'
asbag62
(g83
g64
NtRp1071
(dp1072
g67
(dp1073
sg76
g1058
sg69
(lp1074
g62
(g63
g64
NtRp1075
(dp1076
g67
(dp1077
g75
I4
ssg76
g1071
sg69
(lp1078
g105
asbasbasbag62
(g78
g64
NtRp1079
(dp1080
g67
(dp1081
sg76
g679
sg69
(lp1082
g62
(g83
g64
NtRp1083
(dp1084
g67
(dp1085
g87
g88
ssg76
g1079
sg69
(lp1086
S'local_hosts'
p1087
asbag62
(g83
g64
NtRp1088
(dp1089
g67
(dp1090
g94
g95
ssg76
g1079
sg69
(lp1091
S':'
asbag62
(g83
g64
NtRp1092
(dp1093
g67
(dp1094
sg76
g1079
sg69
(lp1095
g62
(g63
g64
NtRp1096
(dp1097
g67
(dp1098
g75
I4
ssg76
g1092
sg69
(lp1099
g62
(g71
g64
NtRp1100
(dp1101
g67
(dp1102
g75
I3
ssg76
Nsg69
(lp1103
g62
(g78
g64
NtRp1104
(dp1105
g67
(dp1106
sg76
g1100
sg69
(lp1107
g62
(g83
g64
NtRp1108
(dp1109
g67
(dp1110
sg76
g1104
sg69
(lp1111
g62
(g63
g64
NtRp1112
(dp1113
g67
(dp1114
g75
I3
ssg76
g1108
sg69
(lp1115
S'127.0.0.1'
p1116
asbasbasbag62
(g78
g64
NtRp1117
(dp1118
g67
(dp1119
sg76
g1100
sg69
(lp1120
g62
(g83
g64
NtRp1121
(dp1122
g67
(dp1123
sg76
g1117
sg69
(lp1124
g62
(g63
g64
NtRp1125
(dp1126
g67
(dp1127
g75
I3
ssg76
g1121
sg69
(lp1128
S'::ffff:127.0.0.1'
p1129
asbasbasbag62
(g78
g64
NtRp1130
(dp1131
g67
(dp1132
sg76
g1100
sg69
(lp1133
g62
(g83
g64
NtRp1134
(dp1135
g67
(dp1136
sg76
g1130
sg69
(lp1137
g62
(g63
g64
NtRp1138
(dp1139
g67
(dp1140
g75
I3
ssg76
g1134
sg69
(lp1141
S'adm'
p1142
asbasbasbag62
(g78
g64
NtRp1143
(dp1144
g67
(dp1145
sg76
g1100
sg69
(lp1146
g62
(g83
g64
NtRp1147
(dp1148
g67
(dp1149
sg76
g1143
sg69
(lp1150
g62
(g63
g64
NtRp1151
(dp1152
g67
(dp1153
g75
I3
ssg76
g1147
sg69
(lp1154
S'adm'
p1155
asbasbasbag62
(g78
g64
NtRp1156
(dp1157
g67
(dp1158
sg76
g1100
sg69
(lp1159
g62
(g83
g64
NtRp1160
(dp1161
g67
(dp1162
sg76
g1156
sg69
(lp1163
g62
(g63
g64
NtRp1164
(dp1165
g67
(dp1166
g75
I3
ssg76
g1160
sg69
(lp1167
S'127.0.0.2'
p1168
asbasbasbasbasbasbasbag62
(g78
g64
NtRp1169
(dp1170
g67
(dp1171
sg76
g679
sg69
(lp1172
g62
(g83
g64
NtRp1173
(dp1174
g67
(dp1175
g87
g88
ssg76
g1169
sg69
(lp1176
S'path_info'
p1177
asbag62
(g83
g64
NtRp1178
(dp1179
g67
(dp1180
g94
g95
ssg76
g1169
sg69
(lp1181
S':'
asbag62
(g83
g64
NtRp1182
(dp1183
g67
(dp1184
sg76
g1169
sg69
(lp1185
g62
(g63
g64
NtRp1186
(dp1187
g67
(dp1188
g75
I4
ssg76
g1182
sg69
(lp1189
S'/admin/design/dashboard'
p1190
asbasbasbag62
(g78
g64
NtRp1191
(dp1192
g67
(dp1193
sg76
g679
sg69
(lp1194
g62
(g83
g64
NtRp1195
(dp1196
g67
(dp1197
g87
g88
ssg76
g1191
sg69
(lp1198
S'query_string'
p1199
asbag62
(g83
g64
NtRp1200
(dp1201
g67
(dp1202
g94
g95
ssg76
g1191
sg69
(lp1203
S':'
asbag62
(g83
g64
NtRp1204
(dp1205
g67
(dp1206
sg76
g1191
sg69
(lp1207
g62
(g63
g64
NtRp1208
(dp1209
g67
(dp1210
g75
I4
ssg76
g1204
sg69
(lp1211
S''
asbasbasbag62
(g78
g64
NtRp1212
(dp1213
g67
(dp1214
sg76
g679
sg69
(lp1215
g62
(g83
g64
NtRp1216
(dp1217
g67
(dp1218
g87
g88
ssg76
g1212
sg69
(lp1219
S'remote_addr'
p1220
asbag62
(g83
g64
NtRp1221
(dp1222
g67
(dp1223
g94
g95
ssg76
g1212
sg69
(lp1224
S':'
asbag62
(g83
g64
NtRp1225
(dp1226
g67
(dp1227
sg76
g1212
sg69
(lp1228
g62
(g63
g64
NtRp1229
(dp1230
g67
(dp1231
g75
I4
ssg76
g1225
sg69
(lp1232
g230
asbasbasbag62
(g78
g64
NtRp1233
(dp1234
g67
(dp1235
sg76
g679
sg69
(lp1236
g62
(g83
g64
NtRp1237
(dp1238
g67
(dp1239
g87
g88
ssg76
g1233
sg69
(lp1240
S'remote_port'
p1241
asbag62
(g83
g64
NtRp1242
(dp1243
g67
(dp1244
g94
g95
ssg76
g1233
sg69
(lp1245
S':'
asbag62
(g83
g64
NtRp1246
(dp1247
g67
(dp1248
sg76
g1233
sg69
(lp1249
g62
(g63
g64
NtRp1250
(dp1251
g67
(dp1252
g75
I4
ssg76
g1246
sg69
(lp1253
S'37806'
p1254
asbasbasbag62
(g78
g64
NtRp1255
(dp1256
g67
(dp1257
sg76
g679
sg69
(lp1258
g62
(g83
g64
NtRp1259
(dp1260
g67
(dp1261
g87
g88
ssg76
g1255
sg69
(lp1262
S'request_method'
p1263
asbag62
(g83
g64
NtRp1264
(dp1265
g67
(dp1266
g94
g95
ssg76
g1255
sg69
(lp1267
S':'
asbag62
(g83
g64
NtRp1268
(dp1269
g67
(dp1270
sg76
g1255
sg69
(lp1271
g62
(g63
g64
NtRp1272
(dp1273
g67
(dp1274
g75
I4
ssg76
g1268
sg69
(lp1275
S'GET'
p1276
asbasbasbag62
(g78
g64
NtRp1277
(dp1278
g67
(dp1279
sg76
g679
sg69
(lp1280
g62
(g83
g64
NtRp1281
(dp1282
g67
(dp1283
g87
g88
ssg76
g1277
sg69
(lp1284
S'request_uri'
p1285
asbag62
(g83
g64
NtRp1286
(dp1287
g67
(dp1288
g94
g95
ssg76
g1277
sg69
(lp1289
S':'
asbag62
(g83
g64
NtRp1290
(dp1291
g67
(dp1292
sg76
g1277
sg69
(lp1293
g62
(g63
g64
NtRp1294
(dp1295
g67
(dp1296
g75
I4
ssg76
g1290
sg69
(lp1297
S'/admin/default/design/dashboard'
p1298
asbasbasbag62
(g78
g64
NtRp1299
(dp1300
g67
(dp1301
sg76
g679
sg69
(lp1302
g62
(g83
g64
NtRp1303
(dp1304
g67
(dp1305
g87
g88
ssg76
g1299
sg69
(lp1306
S'script_name'
p1307
asbag62
(g83
g64
NtRp1308
(dp1309
g67
(dp1310
g94
g95
ssg76
g1299
sg69
(lp1311
S':'
asbag62
(g83
g64
NtRp1312
(dp1313
g67
(dp1314
sg76
g1299
sg69
(lp1315
g62
(g63
g64
NtRp1316
(dp1317
g67
(dp1318
g75
I4
ssg76
g1312
sg69
(lp1319
S''
asbasbasbag62
(g78
g64
NtRp1320
(dp1321
g67
(dp1322
sg76
g679
sg69
(lp1323
g62
(g83
g64
NtRp1324
(dp1325
g67
(dp1326
g87
g88
ssg76
g1320
sg69
(lp1327
S'server_name'
p1328
asbag62
(g83
g64
NtRp1329
(dp1330
g67
(dp1331
g94
g95
ssg76
g1320
sg69
(lp1332
S':'
asbag62
(g83
g64
NtRp1333
(dp1334
g67
(dp1335
sg76
g1320
sg69
(lp1336
g62
(g63
g64
NtRp1337
(dp1338
g67
(dp1339
g75
I4
ssg76
g1333
sg69
(lp1340
g1155
asbasbasbag62
(g78
g64
NtRp1341
(dp1342
g67
(dp1343
sg76
g679
sg69
(lp1344
g62
(g83
g64
NtRp1345
(dp1346
g67
(dp1347
g87
g88
ssg76
g1341
sg69
(lp1348
S'server_port'
p1349
asbag62
(g83
g64
NtRp1350
(dp1351
g67
(dp1352
g94
g95
ssg76
g1341
sg69
(lp1353
S':'
asbag62
(g83
g64
NtRp1354
(dp1355
g67
(dp1356
sg76
g1341
sg69
(lp1357
g62
(g63
g64
NtRp1358
(dp1359
g67
(dp1360
g75
I4
ssg76
g1354
sg69
(lp1361
S'8010'
p1362
asbasbasbag62
(g78
g64
NtRp1363
(dp1364
g67
(dp1365
sg76
g679
sg69
(lp1366
g62
(g83
g64
NtRp1367
(dp1368
g67
(dp1369
g87
g88
ssg76
g1363
sg69
(lp1370
S'server_protocol'
p1371
asbag62
(g83
g64
NtRp1372
(dp1373
g67
(dp1374
g94
g95
ssg76
g1363
sg69
(lp1375
S':'
asbag62
(g83
g64
NtRp1376
(dp1377
g67
(dp1378
sg76
g1363
sg69
(lp1379
g62
(g63
g64
NtRp1380
(dp1381
g67
(dp1382
g75
I4
ssg76
g1376
sg69
(lp1383
S'HTTP/1.1'
p1384
asbasbasbag62
(g78
g64
NtRp1385
(dp1386
g67
(dp1387
sg76
g679
sg69
(lp1388
g62
(g83
g64
NtRp1389
(dp1390
g67
(dp1391
g87
g88
ssg76
g1385
sg69
(lp1392
S'server_software'
p1393
asbag62
(g83
g64
NtRp1394
(dp1395
g67
(dp1396
g94
g95
ssg76
g1385
sg69
(lp1397
S':'
asbag62
(g83
g64
NtRp1398
(dp1399
g67
(dp1400
sg76
g1385
sg69
(lp1401
g62
(g63
g64
NtRp1402
(dp1403
g67
(dp1404
g75
I4
ssg76
g1398
sg69
(lp1405
S'Rocket 1.2.5'
p1406
asbasbasbag62
(g78
g64
NtRp1407
(dp1408
g67
(dp1409
sg76
g679
sg69
(lp1410
g62
(g83
g64
NtRp1411
(dp1412
g67
(dp1413
g87
g88
ssg76
g1407
sg69
(lp1414
S'ssl_client_raw_cert'
p1415
asbag62
(g83
g64
NtRp1416
(dp1417
g67
(dp1418
g94
g95
ssg76
g1407
sg69
(lp1419
S':'
asbag62
(g83
g64
NtRp1420
(dp1421
g67
(dp1422
sg76
g1407
sg69
(lp1423
g62
(g63
g64
NtRp1424
(dp1425
g67
(dp1426
g75
I4
ssg76
g1420
sg69
(lp1427
S'None'
p1428
asbasbasbag62
(g78
g64
NtRp1429
(dp1430
g67
(dp1431
sg76
g679
sg69
(lp1432
g62
(g83
g64
NtRp1433
(dp1434
g67
(dp1435
g87
g88
ssg76
g1429
sg69
(lp1436
S'web2py_original_uri'
p1437
asbag62
(g83
g64
NtRp1438
(dp1439
g67
(dp1440
g94
g95
ssg76
g1429
sg69
(lp1441
S':'
asbag62
(g83
g64
NtRp1442
(dp1443
g67
(dp1444
sg76
g1429
sg69
(lp1445
g62
(g63
g64
NtRp1446
(dp1447
g67
(dp1448
g75
I4
ssg76
g1442
sg69
(lp1449
g1190
asbasbasbag62
(g78
g64
NtRp1450
(dp1451
g67
(dp1452
sg76
g679
sg69
(lp1453
g62
(g83
g64
NtRp1454
(dp1455
g67
(dp1456
g87
g88
ssg76
g1450
sg69
(lp1457
S'web2py_path'
p1458
asbag62
(g83
g64
NtRp1459
(dp1460
g67
(dp1461
g94
g95
ssg76
g1450
sg69
(lp1462
S':'
asbag62
(g83
g64
NtRp1463
(dp1464
g67
(dp1465
sg76
g1450
sg69
(lp1466
g62
(g63
g64
NtRp1467
(dp1468
g67
(dp1469
g75
I4
ssg76
g1463
sg69
(lp1470
g726
asbasbasbag62
(g78
g64
NtRp1471
(dp1472
g67
(dp1473
sg76
g679
sg69
(lp1474
g62
(g83
g64
NtRp1475
(dp1476
g67
(dp1477
g87
g88
ssg76
g1471
sg69
(lp1478
S'web2py_version'
p1479
asbag62
(g83
g64
NtRp1480
(dp1481
g67
(dp1482
g94
g95
ssg76
g1471
sg69
(lp1483
S':'
asbag62
(g83
g64
NtRp1484
(dp1485
g67
(dp1486
sg76
g1471
sg69
(lp1487
g62
(g63
g64
NtRp1488
(dp1489
g67
(dp1490
g75
I4
ssg76
g1484
sg69
(lp1491
g62
(g71
g64
NtRp1492
(dp1493
g67
(dp1494
g75
I3
ssg76
Nsg69
(lp1495
g62
(g78
g64
NtRp1496
(dp1497
g67
(dp1498
sg76
g1492
sg69
(lp1499
g62
(g83
g64
NtRp1500
(dp1501
g67
(dp1502
sg76
g1496
sg69
(lp1503
g62
(g63
g64
NtRp1504
(dp1505
g67
(dp1506
g75
I3
ssg76
g1500
sg69
(lp1507
S'2'
asbasbasbag62
(g78
g64
NtRp1508
(dp1509
g67
(dp1510
sg76
g1492
sg69
(lp1511
g62
(g83
g64
NtRp1512
(dp1513
g67
(dp1514
sg76
g1508
sg69
(lp1515
g62
(g63
g64
NtRp1516
(dp1517
g67
(dp1518
g75
I3
ssg76
g1512
sg69
(lp1519
S'2'
asbasbasbag62
(g78
g64
NtRp1520
(dp1521
g67
(dp1522
sg76
g1492
sg69
(lp1523
g62
(g83
g64
NtRp1524
(dp1525
g67
(dp1526
sg76
g1520
sg69
(lp1527
g62
(g63
g64
NtRp1528
(dp1529
g67
(dp1530
g75
I3
ssg76
g1524
sg69
(lp1531
S'1'
asbasbasbag62
(g78
g64
NtRp1532
(dp1533
g67
(dp1534
sg76
g1492
sg69
(lp1535
g62
(g83
g64
NtRp1536
(dp1537
g67
(dp1538
sg76
g1532
sg69
(lp1539
g62
(g63
g64
NtRp1540
(dp1541
g67
(dp1542
g75
I3
ssg76
g1536
sg69
(lp1543
S'datetime.datetime(2012, 10, 21, 16, 57, 4)'
p1544
asbasbasbag62
(g78
g64
NtRp1545
(dp1546
g67
(dp1547
sg76
g1492
sg69
(lp1548
g62
(g83
g64
NtRp1549
(dp1550
g67
(dp1551
sg76
g1545
sg69
(lp1552
g62
(g63
g64
NtRp1553
(dp1554
g67
(dp1555
g75
I3
ssg76
g1549
sg69
(lp1556
S'stable'
p1557
asbasbasbasbasbasbasbag62
(g78
g64
NtRp1558
(dp1559
g67
(dp1560
sg76
g679
sg69
(lp1561
g62
(g83
g64
NtRp1562
(dp1563
g67
(dp1564
g87
g88
ssg76
g1558
sg69
(lp1565
S'wsgi_errors'
p1566
asbag62
(g83
g64
NtRp1567
(dp1568
g67
(dp1569
g94
g95
ssg76
g1558
sg69
(lp1570
S':'
asbag62
(g83
g64
NtRp1571
(dp1572
g67
(dp1573
sg76
g1558
sg69
(lp1574
g62
(g63
g64
NtRp1575
(dp1576
g67
(dp1577
g75
I4
ssg76
g1571
sg69
(lp1578
S"<open file '<stderr>', mode 'w' at 0xb73f70d0>"
p1579
asbasbasbag62
(g78
g64
NtRp1580
(dp1581
g67
(dp1582
sg76
g679
sg69
(lp1583
g62
(g83
g64
NtRp1584
(dp1585
g67
(dp1586
g87
g88
ssg76
g1580
sg69
(lp1587
S'wsgi_file_wrapper'
p1588
asbag62
(g83
g64
NtRp1589
(dp1590
g67
(dp1591
g94
g95
ssg76
g1580
sg69
(lp1592
S':'
asbag62
(g83
g64
NtRp1593
(dp1594
g67
(dp1595
sg76
g1580
sg69
(lp1596
g62
(g63
g64
NtRp1597
(dp1598
g67
(dp1599
g75
I4
ssg76
g1593
sg69
(lp1600
S'<class wsgiref.util.FileWrapper at 0x8db259c>'
p1601
asbasbasbag62
(g78
g64
NtRp1602
(dp1603
g67
(dp1604
sg76
g679
sg69
(lp1605
g62
(g83
g64
NtRp1606
(dp1607
g67
(dp1608
g87
g88
ssg76
g1602
sg69
(lp1609
S'wsgi_input'
p1610
asbag62
(g83
g64
NtRp1611
(dp1612
g67
(dp1613
g94
g95
ssg76
g1602
sg69
(lp1614
S':'
asbag62
(g83
g64
NtRp1615
(dp1616
g67
(dp1617
sg76
g1602
sg69
(lp1618
g62
(g63
g64
NtRp1619
(dp1620
g67
(dp1621
g75
I4
ssg76
g1615
sg69
(lp1622
S'<socket._fileobject object at 0x8d688ec>'
p1623
asbasbasbag62
(g78
g64
NtRp1624
(dp1625
g67
(dp1626
sg76
g679
sg69
(lp1627
g62
(g83
g64
NtRp1628
(dp1629
g67
(dp1630
g87
g88
ssg76
g1624
sg69
(lp1631
S'wsgi_multiprocess'
p1632
asbag62
(g83
g64
NtRp1633
(dp1634
g67
(dp1635
g94
g95
ssg76
g1624
sg69
(lp1636
S':'
asbag62
(g83
g64
NtRp1637
(dp1638
g67
(dp1639
sg76
g1624
sg69
(lp1640
g62
(g63
g64
NtRp1641
(dp1642
g67
(dp1643
g75
I4
ssg76
g1637
sg69
(lp1644
g105
asbasbasbag62
(g78
g64
NtRp1645
(dp1646
g67
(dp1647
sg76
g679
sg69
(lp1648
g62
(g83
g64
NtRp1649
(dp1650
g67
(dp1651
g87
g88
ssg76
g1645
sg69
(lp1652
S'wsgi_multithread'
p1653
asbag62
(g83
g64
NtRp1654
(dp1655
g67
(dp1656
g94
g95
ssg76
g1645
sg69
(lp1657
S':'
asbag62
(g83
g64
NtRp1658
(dp1659
g67
(dp1660
sg76
g1645
sg69
(lp1661
g62
(g63
g64
NtRp1662
(dp1663
g67
(dp1664
g75
I4
ssg76
g1658
sg69
(lp1665
S'True'
p1666
asbasbasbag62
(g78
g64
NtRp1667
(dp1668
g67
(dp1669
sg76
g679
sg69
(lp1670
g62
(g83
g64
NtRp1671
(dp1672
g67
(dp1673
g87
g88
ssg76
g1667
sg69
(lp1674
S'wsgi_run_once'
p1675
asbag62
(g83
g64
NtRp1676
(dp1677
g67
(dp1678
g94
g95
ssg76
g1667
sg69
(lp1679
S':'
asbag62
(g83
g64
NtRp1680
(dp1681
g67
(dp1682
sg76
g1667
sg69
(lp1683
g62
(g63
g64
NtRp1684
(dp1685
g67
(dp1686
g75
I4
ssg76
g1680
sg69
(lp1687
g105
asbasbasbag62
(g78
g64
NtRp1688
(dp1689
g67
(dp1690
sg76
g679
sg69
(lp1691
g62
(g83
g64
NtRp1692
(dp1693
g67
(dp1694
g87
g88
ssg76
g1688
sg69
(lp1695
S'wsgi_url_scheme'
p1696
asbag62
(g83
g64
NtRp1697
(dp1698
g67
(dp1699
g94
g95
ssg76
g1688
sg69
(lp1700
S':'
asbag62
(g83
g64
NtRp1701
(dp1702
g67
(dp1703
sg76
g1688
sg69
(lp1704
g62
(g63
g64
NtRp1705
(dp1706
g67
(dp1707
g75
I4
ssg76
g1701
sg69
(lp1708
S'https'
p1709
asbasbasbag62
(g78
g64
NtRp1710
(dp1711
g67
(dp1712
sg76
g679
sg69
(lp1713
g62
(g83
g64
NtRp1714
(dp1715
g67
(dp1716
g87
g88
ssg76
g1710
sg69
(lp1717
S'wsgi_version'
p1718
asbag62
(g83
g64
NtRp1719
(dp1720
g67
(dp1721
g94
g95
ssg76
g1710
sg69
(lp1722
S':'
asbag62
(g83
g64
NtRp1723
(dp1724
g67
(dp1725
sg76
g1710
sg69
(lp1726
g62
(g63
g64
NtRp1727
(dp1728
g67
(dp1729
g75
I4
ssg76
g1723
sg69
(lp1730
g62
(g71
g64
NtRp1731
(dp1732
g67
(dp1733
g75
I3
ssg76
Nsg69
(lp1734
g62
(g78
g64
NtRp1735
(dp1736
g67
(dp1737
sg76
g1731
sg69
(lp1738
g62
(g83
g64
NtRp1739
(dp1740
g67
(dp1741
sg76
g1735
sg69
(lp1742
g62
(g63
g64
NtRp1743
(dp1744
g67
(dp1745
g75
I3
ssg76
g1739
sg69
(lp1746
S'1'
asbasbasbag62
(g78
g64
NtRp1747
(dp1748
g67
(dp1749
sg76
g1731
sg69
(lp1750
g62
(g83
g64
NtRp1751
(dp1752
g67
(dp1753
sg76
g1747
sg69
(lp1754
g62
(g63
g64
NtRp1755
(dp1756
g67
(dp1757
g75
I3
ssg76
g1751
sg69
(lp1758
S'0'
asbasbasbasbasbasbasbasbasbasbasbag62
(g78
g64
NtRp1759
(dp1760
g67
(dp1761
sg76
g72
sg69
(lp1762
g62
(g83
g64
NtRp1763
(dp1764
g67
(dp1765
g87
g88
ssg76
g1759
sg69
(lp1766
S'extension'
p1767
asbag62
(g83
g64
NtRp1768
(dp1769
g67
(dp1770
g94
g95
ssg76
g1759
sg69
(lp1771
S':'
asbag62
(g83
g64
NtRp1772
(dp1773
g67
(dp1774
sg76
g1759
sg69
(lp1775
g62
(g63
g64
NtRp1776
(dp1777
g67
(dp1778
g75
I5
ssg76
g1772
sg69
(lp1779
S'html'
p1780
asbasbasbag62
(g78
g64
NtRp1781
(dp1782
g67
(dp1783
sg76
g72
sg69
(lp1784
g62
(g83
g64
NtRp1785
(dp1786
g67
(dp1787
g87
g88
ssg76
g1781
sg69
(lp1788
S'folder'
p1789
asbag62
(g83
g64
NtRp1790
(dp1791
g67
(dp1792
g94
g95
ssg76
g1781
sg69
(lp1793
S':'
asbag62
(g83
g64
NtRp1794
(dp1795
g67
(dp1796
sg76
g1781
sg69
(lp1797
g62
(g63
g64
NtRp1798
(dp1799
g67
(dp1800
g75
I5
ssg76
g1794
sg69
(lp1801
S'/opt/smb4manager/applications/admin/'
p1802
asbasbasbag62
(g78
g64
NtRp1803
(dp1804
g67
(dp1805
sg76
g72
sg69
(lp1806
g62
(g83
g64
NtRp1807
(dp1808
g67
(dp1809
g87
g88
ssg76
g1803
sg69
(lp1810
S'function'
p1811
asbag62
(g83
g64
NtRp1812
(dp1813
g67
(dp1814
g94
g95
ssg76
g1803
sg69
(lp1815
S':'
asbag62
(g83
g64
NtRp1816
(dp1817
g67
(dp1818
sg76
g1803
sg69
(lp1819
g62
(g63
g64
NtRp1820
(dp1821
g67
(dp1822
g75
I5
ssg76
g1816
sg69
(lp1823
S'design'
p1824
asbasbasbag62
(g78
g64
NtRp1825
(dp1826
g67
(dp1827
sg76
g72
sg69
(lp1828
g62
(g83
g64
NtRp1829
(dp1830
g67
(dp1831
g87
g88
ssg76
g1825
sg69
(lp1832
S'get_vars'
p1833
asbag62
(g83
g64
NtRp1834
(dp1835
g67
(dp1836
g94
g95
ssg76
g1825
sg69
(lp1837
S':'
asbag62
(g83
g64
NtRp1838
(dp1839
g67
(dp1840
sg76
g1825
sg69
(lp1841
g62
(g63
g64
NtRp1842
(dp1843
g67
(dp1844
g75
I5
ssg76
g1838
sg69
(lp1845
g62
(g71
g64
NtRp1846
(dp1847
g67
(dp1848
g75
I4
ssg76
Nsg69
(lp1849
sbasbasbasbag62
(g78
g64
NtRp1850
(dp1851
g67
(dp1852
sg76
g72
sg69
(lp1853
g62
(g83
g64
NtRp1854
(dp1855
g67
(dp1856
g87
g88
ssg76
g1850
sg69
(lp1857
S'global_settings'
p1858
asbag62
(g83
g64
NtRp1859
(dp1860
g67
(dp1861
g94
g95
ssg76
g1850
sg69
(lp1862
S':'
asbag62
(g83
g64
NtRp1863
(dp1864
g67
(dp1865
sg76
g1850
sg69
(lp1866
g62
(g63
g64
NtRp1867
(dp1868
g67
(dp1869
g75
I5
ssg76
g1863
sg69
(lp1870
g62
(g71
g64
NtRp1871
(dp1872
g67
(dp1873
g75
I4
ssg76
Nsg69
(lp1874
g62
(g78
g64
NtRp1875
(dp1876
g67
(dp1877
sg76
g1871
sg69
(lp1878
g62
(g83
g64
NtRp1879
(dp1880
g67
(dp1881
g87
g88
ssg76
g1875
sg69
(lp1882
g691
asbag62
(g83
g64
NtRp1883
(dp1884
g67
(dp1885
g94
g95
ssg76
g1875
sg69
(lp1886
S':'
asbag62
(g83
g64
NtRp1887
(dp1888
g67
(dp1889
sg76
g1875
sg69
(lp1890
g62
(g63
g64
NtRp1891
(dp1892
g67
(dp1893
g75
I4
ssg76
g1887
sg69
(lp1894
S"set(['/opt/smb4manager/applications/admin/', '/opt/smb4manager/applications/dashboard/'])"
p1895
asbasbasbag62
(g78
g64
NtRp1896
(dp1897
g67
(dp1898
sg76
g1871
sg69
(lp1899
g62
(g83
g64
NtRp1900
(dp1901
g67
(dp1902
g87
g88
ssg76
g1896
sg69
(lp1903
g713
asbag62
(g83
g64
NtRp1904
(dp1905
g67
(dp1906
g94
g95
ssg76
g1896
sg69
(lp1907
S':'
asbag62
(g83
g64
NtRp1908
(dp1909
g67
(dp1910
sg76
g1896
sg69
(lp1911
g62
(g63
g64
NtRp1912
(dp1913
g67
(dp1914
g75
I4
ssg76
g1908
sg69
(lp1915
g726
asbasbasbag62
(g78
g64
NtRp1916
(dp1917
g67
(dp1918
sg76
g1871
sg69
(lp1919
g62
(g83
g64
NtRp1920
(dp1921
g67
(dp1922
g87
g88
ssg76
g1916
sg69
(lp1923
g735
asbag62
(g83
g64
NtRp1924
(dp1925
g67
(dp1926
g94
g95
ssg76
g1916
sg69
(lp1927
S':'
asbag62
(g83
g64
NtRp1928
(dp1929
g67
(dp1930
sg76
g1916
sg69
(lp1931
g62
(g63
g64
NtRp1932
(dp1933
g67
(dp1934
g75
I4
ssg76
g1928
sg69
(lp1935
g62
(g71
g64
NtRp1936
(dp1937
g67
(dp1938
g75
I3
ssg76
Nsg69
(lp1939
sbasbasbasbag62
(g78
g64
NtRp1940
(dp1941
g67
(dp1942
sg76
g1871
sg69
(lp1943
g62
(g83
g64
NtRp1944
(dp1945
g67
(dp1946
g87
g88
ssg76
g1940
sg69
(lp1947
g760
asbag62
(g83
g64
NtRp1948
(dp1949
g67
(dp1950
g94
g95
ssg76
g1940
sg69
(lp1951
S':'
asbag62
(g83
g64
NtRp1952
(dp1953
g67
(dp1954
sg76
g1940
sg69
(lp1955
g62
(g63
g64
NtRp1956
(dp1957
g67
(dp1958
g75
I4
ssg76
g1952
sg69
(lp1959
S"<Values at 0x8d7236c: {'verbose': False, 'ip': '0.0.0.0', 'with_scheduler': False, 'ips': ['127.0.0.2'], 'shutdown_timeout': 5, 'taskbar': False, 'port': 8010, 'maxthreads': None, 'softcron': False, 'server_name': 'adm', 'bpython': False, 'nogui': True, 'pid_filename': 'httpserver.pid', 'extcron': False, 'runcron': False, 'run_system_tests': False, 'test': None, 'folder': '/opt/smb4manager', 'config': '', 'import_models': False, 'winservice': '', 'shell': None, 'run': '', 'log_filename': 'httpserver.log', 'debuglevel': 100, 'args': [''], 'socket_timeout': 5, 'ssl_ca_certificate': None, 'scheduler': None, 'profiler_filename': None, 'ssl_private_key': 'ssl/server.key', 'scheduler_groups': None, 'password': 'smb4manager', 'request_queue_size': 5, 'ssl_certificate': 'ssl/server.crt', 'cronjob': False, 'numthreads': None, 'quiet': False, 'interfaces': None, 'minthreads': None, 'timeout': 10, 'plain': False, 'nobanner': False}>"
p1960
asbasbasbag62
(g78
g64
NtRp1961
(dp1962
g67
(dp1963
sg76
g1871
sg69
(lp1964
g62
(g83
g64
NtRp1965
(dp1966
g67
(dp1967
g87
g88
ssg76
g1961
sg69
(lp1968
g782
asbag62
(g83
g64
NtRp1969
(dp1970
g67
(dp1971
g94
g95
ssg76
g1961
sg69
(lp1972
S':'
asbag62
(g83
g64
NtRp1973
(dp1974
g67
(dp1975
sg76
g1961
sg69
(lp1976
g62
(g63
g64
NtRp1977
(dp1978
g67
(dp1979
g75
I4
ssg76
g1973
sg69
(lp1980
S'set([])'
p1981
asbasbasbag62
(g78
g64
NtRp1982
(dp1983
g67
(dp1984
sg76
g1871
sg69
(lp1985
g62
(g83
g64
NtRp1986
(dp1987
g67
(dp1988
g87
g88
ssg76
g1982
sg69
(lp1989
g804
asbag62
(g83
g64
NtRp1990
(dp1991
g67
(dp1992
g94
g95
ssg76
g1982
sg69
(lp1993
S':'
asbag62
(g83
g64
NtRp1994
(dp1995
g67
(dp1996
sg76
g1982
sg69
(lp1997
g62
(g63
g64
NtRp1998
(dp1999
g67
(dp2000
g75
I4
ssg76
g1994
sg69
(lp2001
g105
asbasbasbag62
(g78
g64
NtRp2002
(dp2003
g67
(dp2004
sg76
g1871
sg69
(lp2005
g62
(g83
g64
NtRp2006
(dp2007
g67
(dp2008
g87
g88
ssg76
g2002
sg69
(lp2009
g825
asbag62
(g83
g64
NtRp2010
(dp2011
g67
(dp2012
g94
g95
ssg76
g2002
sg69
(lp2013
S':'
asbag62
(g83
g64
NtRp2014
(dp2015
g67
(dp2016
sg76
g2002
sg69
(lp2017
g62
(g63
g64
NtRp2018
(dp2019
g67
(dp2020
g75
I4
ssg76
g2014
sg69
(lp2021
g838
asbasbasbag62
(g78
g64
NtRp2022
(dp2023
g67
(dp2024
sg76
g1871
sg69
(lp2025
g62
(g83
g64
NtRp2026
(dp2027
g67
(dp2028
g87
g88
ssg76
g2022
sg69
(lp2029
g1045
asbag62
(g83
g64
NtRp2030
(dp2031
g67
(dp2032
g94
g95
ssg76
g2022
sg69
(lp2033
S':'
asbag62
(g83
g64
NtRp2034
(dp2035
g67
(dp2036
sg76
g2022
sg69
(lp2037
g62
(g63
g64
NtRp2038
(dp2039
g67
(dp2040
g75
I4
ssg76
g2034
sg69
(lp2041
g105
asbasbasbag62
(g78
g64
NtRp2042
(dp2043
g67
(dp2044
sg76
g1871
sg69
(lp2045
g62
(g83
g64
NtRp2046
(dp2047
g67
(dp2048
g87
g88
ssg76
g2042
sg69
(lp2049
g1066
asbag62
(g83
g64
NtRp2050
(dp2051
g67
(dp2052
g94
g95
ssg76
g2042
sg69
(lp2053
S':'
asbag62
(g83
g64
NtRp2054
(dp2055
g67
(dp2056
sg76
g2042
sg69
(lp2057
g62
(g63
g64
NtRp2058
(dp2059
g67
(dp2060
g75
I4
ssg76
g2054
sg69
(lp2061
g105
asbasbasbag62
(g78
g64
NtRp2062
(dp2063
g67
(dp2064
sg76
g1871
sg69
(lp2065
g62
(g83
g64
NtRp2066
(dp2067
g67
(dp2068
g87
g88
ssg76
g2062
sg69
(lp2069
g1087
asbag62
(g83
g64
NtRp2070
(dp2071
g67
(dp2072
g94
g95
ssg76
g2062
sg69
(lp2073
S':'
asbag62
(g83
g64
NtRp2074
(dp2075
g67
(dp2076
sg76
g2062
sg69
(lp2077
g62
(g63
g64
NtRp2078
(dp2079
g67
(dp2080
g75
I4
ssg76
g2074
sg69
(lp2081
g62
(g71
g64
NtRp2082
(dp2083
g67
(dp2084
g75
I3
ssg76
Nsg69
(lp2085
g62
(g78
g64
NtRp2086
(dp2087
g67
(dp2088
sg76
g2082
sg69
(lp2089
g62
(g83
g64
NtRp2090
(dp2091
g67
(dp2092
sg76
g2086
sg69
(lp2093
g62
(g63
g64
NtRp2094
(dp2095
g67
(dp2096
g75
I3
ssg76
g2090
sg69
(lp2097
g1116
asbasbasbag62
(g78
g64
NtRp2098
(dp2099
g67
(dp2100
sg76
g2082
sg69
(lp2101
g62
(g83
g64
NtRp2102
(dp2103
g67
(dp2104
sg76
g2098
sg69
(lp2105
g62
(g63
g64
NtRp2106
(dp2107
g67
(dp2108
g75
I3
ssg76
g2102
sg69
(lp2109
g1129
asbasbasbag62
(g78
g64
NtRp2110
(dp2111
g67
(dp2112
sg76
g2082
sg69
(lp2113
g62
(g83
g64
NtRp2114
(dp2115
g67
(dp2116
sg76
g2110
sg69
(lp2117
g62
(g63
g64
NtRp2118
(dp2119
g67
(dp2120
g75
I3
ssg76
g2114
sg69
(lp2121
g1142
asbasbasbag62
(g78
g64
NtRp2122
(dp2123
g67
(dp2124
sg76
g2082
sg69
(lp2125
g62
(g83
g64
NtRp2126
(dp2127
g67
(dp2128
sg76
g2122
sg69
(lp2129
g62
(g63
g64
NtRp2130
(dp2131
g67
(dp2132
g75
I3
ssg76
g2126
sg69
(lp2133
g1155
asbasbasbag62
(g78
g64
NtRp2134
(dp2135
g67
(dp2136
sg76
g2082
sg69
(lp2137
g62
(g83
g64
NtRp2138
(dp2139
g67
(dp2140
sg76
g2134
sg69
(lp2141
g62
(g63
g64
NtRp2142
(dp2143
g67
(dp2144
g75
I3
ssg76
g2138
sg69
(lp2145
g1168
asbasbasbasbasbasbasbag62
(g78
g64
NtRp2146
(dp2147
g67
(dp2148
sg76
g1871
sg69
(lp2149
g62
(g83
g64
NtRp2150
(dp2151
g67
(dp2152
g87
g88
ssg76
g2146
sg69
(lp2153
g1479
asbag62
(g83
g64
NtRp2154
(dp2155
g67
(dp2156
g94
g95
ssg76
g2146
sg69
(lp2157
S':'
asbag62
(g83
g64
NtRp2158
(dp2159
g67
(dp2160
sg76
g2146
sg69
(lp2161
g62
(g63
g64
NtRp2162
(dp2163
g67
(dp2164
g75
I4
ssg76
g2158
sg69
(lp2165
g62
(g71
g64
NtRp2166
(dp2167
g67
(dp2168
g75
I3
ssg76
Nsg69
(lp2169
g62
(g78
g64
NtRp2170
(dp2171
g67
(dp2172
sg76
g2166
sg69
(lp2173
g62
(g83
g64
NtRp2174
(dp2175
g67
(dp2176
sg76
g2170
sg69
(lp2177
g62
(g63
g64
NtRp2178
(dp2179
g67
(dp2180
g75
I3
ssg76
g2174
sg69
(lp2181
S'2'
asbasbasbag62
(g78
g64
NtRp2182
(dp2183
g67
(dp2184
sg76
g2166
sg69
(lp2185
g62
(g83
g64
NtRp2186
(dp2187
g67
(dp2188
sg76
g2182
sg69
(lp2189
g62
(g63
g64
NtRp2190
(dp2191
g67
(dp2192
g75
I3
ssg76
g2186
sg69
(lp2193
S'2'
asbasbasbag62
(g78
g64
NtRp2194
(dp2195
g67
(dp2196
sg76
g2166
sg69
(lp2197
g62
(g83
g64
NtRp2198
(dp2199
g67
(dp2200
sg76
g2194
sg69
(lp2201
g62
(g63
g64
NtRp2202
(dp2203
g67
(dp2204
g75
I3
ssg76
g2198
sg69
(lp2205
S'1'
asbasbasbag62
(g78
g64
NtRp2206
(dp2207
g67
(dp2208
sg76
g2166
sg69
(lp2209
g62
(g83
g64
NtRp2210
(dp2211
g67
(dp2212
sg76
g2206
sg69
(lp2213
g62
(g63
g64
NtRp2214
(dp2215
g67
(dp2216
g75
I3
ssg76
g2210
sg69
(lp2217
S'datetime.datetime(2012, 10, 21, 16, 57, 4)'
p2218
asbasbasbag62
(g78
g64
NtRp2219
(dp2220
g67
(dp2221
sg76
g2166
sg69
(lp2222
g62
(g83
g64
NtRp2223
(dp2224
g67
(dp2225
sg76
g2219
sg69
(lp2226
g62
(g63
g64
NtRp2227
(dp2228
g67
(dp2229
g75
I3
ssg76
g2223
sg69
(lp2230
g1557
asbasbasbasbasbasbasbasbasbasbasbag62
(g78
g64
NtRp2231
(dp2232
g67
(dp2233
sg76
g72
sg69
(lp2234
g62
(g83
g64
NtRp2235
(dp2236
g67
(dp2237
g87
g88
ssg76
g2231
sg69
(lp2238
S'is_https'
p2239
asbag62
(g83
g64
NtRp2240
(dp2241
g67
(dp2242
g94
g95
ssg76
g2231
sg69
(lp2243
S':'
asbag62
(g83
g64
NtRp2244
(dp2245
g67
(dp2246
sg76
g2231
sg69
(lp2247
g62
(g63
g64
NtRp2248
(dp2249
g67
(dp2250
g75
I5
ssg76
g2244
sg69
(lp2251
g1666
asbasbasbag62
(g78
g64
NtRp2252
(dp2253
g67
(dp2254
sg76
g72
sg69
(lp2255
g62
(g83
g64
NtRp2256
(dp2257
g67
(dp2258
g87
g88
ssg76
g2252
sg69
(lp2259
S'is_local'
p2260
asbag62
(g83
g64
NtRp2261
(dp2262
g67
(dp2263
g94
g95
ssg76
g2252
sg69
(lp2264
S':'
asbag62
(g83
g64
NtRp2265
(dp2266
g67
(dp2267
sg76
g2252
sg69
(lp2268
g62
(g63
g64
NtRp2269
(dp2270
g67
(dp2271
g75
I5
ssg76
g2265
sg69
(lp2272
g105
asbasbasbag62
(g78
g64
NtRp2273
(dp2274
g67
(dp2275
sg76
g72
sg69
(lp2276
g62
(g83
g64
NtRp2277
(dp2278
g67
(dp2279
g87
g88
ssg76
g2273
sg69
(lp2280
S'is_restful'
p2281
asbag62
(g83
g64
NtRp2282
(dp2283
g67
(dp2284
g94
g95
ssg76
g2273
sg69
(lp2285
S':'
asbag62
(g83
g64
NtRp2286
(dp2287
g67
(dp2288
sg76
g2273
sg69
(lp2289
g62
(g63
g64
NtRp2290
(dp2291
g67
(dp2292
g75
I5
ssg76
g2286
sg69
(lp2293
g105
asbasbasbag62
(g78
g64
NtRp2294
(dp2295
g67
(dp2296
sg76
g72
sg69
(lp2297
g62
(g83
g64
NtRp2298
(dp2299
g67
(dp2300
g87
g88
ssg76
g2294
sg69
(lp2301
S'now'
p2302
asbag62
(g83
g64
NtRp2303
(dp2304
g67
(dp2305
g94
g95
ssg76
g2294
sg69
(lp2306
S':'
asbag62
(g83
g64
NtRp2307
(dp2308
g67
(dp2309
sg76
g2294
sg69
(lp2310
g62
(g63
g64
NtRp2311
(dp2312
g67
(dp2313
g75
I5
ssg76
g2307
sg69
(lp2314
S'datetime.datetime(2013, 1, 28, 13, 9, 4, 718116)'
p2315
asbasbasbag62
(g78
g64
NtRp2316
(dp2317
g67
(dp2318
sg76
g72
sg69
(lp2319
g62
(g83
g64
NtRp2320
(dp2321
g67
(dp2322
g87
g88
ssg76
g2316
sg69
(lp2323
S'post_vars'
p2324
asbag62
(g83
g64
NtRp2325
(dp2326
g67
(dp2327
g94
g95
ssg76
g2316
sg69
(lp2328
S':'
asbag62
(g83
g64
NtRp2329
(dp2330
g67
(dp2331
sg76
g2316
sg69
(lp2332
g62
(g63
g64
NtRp2333
(dp2334
g67
(dp2335
g75
I5
ssg76
g2329
sg69
(lp2336
g62
(g71
g64
NtRp2337
(dp2338
g67
(dp2339
g75
I4
ssg76
Nsg69
(lp2340
sbasbasbasbag62
(g78
g64
NtRp2341
(dp2342
g67
(dp2343
sg76
g72
sg69
(lp2344
g62
(g83
g64
NtRp2345
(dp2346
g67
(dp2347
g87
g88
ssg76
g2341
sg69
(lp2348
S'url'
p2349
asbag62
(g83
g64
NtRp2350
(dp2351
g67
(dp2352
g94
g95
ssg76
g2341
sg69
(lp2353
S':'
asbag62
(g83
g64
NtRp2354
(dp2355
g67
(dp2356
sg76
g2341
sg69
(lp2357
g62
(g63
g64
NtRp2358
(dp2359
g67
(dp2360
g75
I5
ssg76
g2354
sg69
(lp2361
g1190
asbasbasbag62
(g78
g64
NtRp2362
(dp2363
g67
(dp2364
sg76
g72
sg69
(lp2365
g62
(g83
g64
NtRp2366
(dp2367
g67
(dp2368
g87
g88
ssg76
g2362
sg69
(lp2369
S'utcnow'
p2370
asbag62
(g83
g64
NtRp2371
(dp2372
g67
(dp2373
g94
g95
ssg76
g2362
sg69
(lp2374
S':'
asbag62
(g83
g64
NtRp2375
(dp2376
g67
(dp2377
sg76
g2362
sg69
(lp2378
g62
(g63
g64
NtRp2379
(dp2380
g67
(dp2381
g75
I5
ssg76
g2375
sg69
(lp2382
S'datetime.datetime(2013, 1, 28, 15, 9, 4, 718133)'
p2383
asbasbasbag62
(g78
g64
NtRp2384
(dp2385
g67
(dp2386
sg76
g72
sg69
(lp2387
g62
(g83
g64
NtRp2388
(dp2389
g67
(dp2390
g87
g88
ssg76
g2384
sg69
(lp2391
S'uuid'
p2392
asbag62
(g83
g64
NtRp2393
(dp2394
g67
(dp2395
g94
g95
ssg76
g2384
sg69
(lp2396
S':'
asbag62
(g83
g64
NtRp2397
(dp2398
g67
(dp2399
sg76
g2384
sg69
(lp2400
g62
(g63
g64
NtRp2401
(dp2402
g67
(dp2403
g75
I5
ssg76
g2397
sg69
(lp2404
S'admin/192.168.20.23.2013-01-28.13-09-04.451dc26f-da8f-4d13-b6f8-4b811ad81074'
p2405
asbasbasbag62
(g78
g64
NtRp2406
(dp2407
g67
(dp2408
sg76
g72
sg69
(lp2409
g62
(g83
g64
NtRp2410
(dp2411
g67
(dp2412
g87
g88
ssg76
g2406
sg69
(lp2413
S'vars'
p2414
asbag62
(g83
g64
NtRp2415
(dp2416
g67
(dp2417
g94
g95
ssg76
g2406
sg69
(lp2418
S':'
asbag62
(g83
g64
NtRp2419
(dp2420
g67
(dp2421
sg76
g2406
sg69
(lp2422
g62
(g63
g64
NtRp2423
(dp2424
g67
(dp2425
g75
I5
ssg76
g2419
sg69
(lp2426
g62
(g71
g64
NtRp2427
(dp2428
g67
(dp2429
g75
I4
ssg76
Nsg69
(lp2430
sbasbasbasbag62
(g78
g64
NtRp2431
(dp2432
g67
(dp2433
sg76
g72
sg69
(lp2434
g62
(g83
g64
NtRp2435
(dp2436
g67
(dp2437
g87
g88
ssg76
g2431
sg69
(lp2438
S'wsgi'
p2439
asbag62
(g83
g64
NtRp2440
(dp2441
g67
(dp2442
g94
g95
ssg76
g2431
sg69
(lp2443
S':'
asbag62
(g83
g64
NtRp2444
(dp2445
g67
(dp2446
sg76
g2431
sg69
(lp2447
g62
(g63
g64
NtRp2448
(dp2449
g67
(dp2450
g75
I5
ssg76
g2444
sg69
(lp2451
g62
(g71
g64
NtRp2452
(dp2453
g67
(dp2454
g75
I4
ssg76
Nsg69
(lp2455
g62
(g78
g64
NtRp2456
(dp2457
g67
(dp2458
sg76
g2452
sg69
(lp2459
g62
(g83
g64
NtRp2460
(dp2461
g67
(dp2462
g87
g88
ssg76
g2456
sg69
(lp2463
S'environ'
p2464
asbag62
(g83
g64
NtRp2465
(dp2466
g67
(dp2467
g94
g95
ssg76
g2456
sg69
(lp2468
S':'
asbag62
(g83
g64
NtRp2469
(dp2470
g67
(dp2471
sg76
g2456
sg69
(lp2472
g62
(g63
g64
NtRp2473
(dp2474
g67
(dp2475
g75
I4
ssg76
g2469
sg69
(lp2476
g62
(g71
g64
NtRp2477
(dp2478
g67
(dp2479
g75
I3
ssg76
Nsg69
(lp2480
g62
(g78
g64
NtRp2481
(dp2482
g67
(dp2483
sg76
g2477
sg69
(lp2484
g62
(g83
g64
NtRp2485
(dp2486
g67
(dp2487
g87
g88
ssg76
g2481
sg69
(lp2488
S'HTTPS'
p2489
asbag62
(g83
g64
NtRp2490
(dp2491
g67
(dp2492
g94
g95
ssg76
g2481
sg69
(lp2493
S':'
asbag62
(g83
g64
NtRp2494
(dp2495
g67
(dp2496
sg76
g2481
sg69
(lp2497
g62
(g63
g64
NtRp2498
(dp2499
g67
(dp2500
g75
I3
ssg76
g2494
sg69
(lp2501
g1036
asbasbasbag62
(g78
g64
NtRp2502
(dp2503
g67
(dp2504
sg76
g2477
sg69
(lp2505
g62
(g83
g64
NtRp2506
(dp2507
g67
(dp2508
g87
g88
ssg76
g2502
sg69
(lp2509
S'HTTP_ACCEPT'
p2510
asbag62
(g83
g64
NtRp2511
(dp2512
g67
(dp2513
g94
g95
ssg76
g2502
sg69
(lp2514
S':'
asbag62
(g83
g64
NtRp2515
(dp2516
g67
(dp2517
sg76
g2502
sg69
(lp2518
g62
(g63
g64
NtRp2519
(dp2520
g67
(dp2521
g75
I3
ssg76
g2515
sg69
(lp2522
g860
asbasbasbag62
(g78
g64
NtRp2523
(dp2524
g67
(dp2525
sg76
g2477
sg69
(lp2526
g62
(g83
g64
NtRp2527
(dp2528
g67
(dp2529
g87
g88
ssg76
g2523
sg69
(lp2530
S'HTTP_ACCEPT_ENCODING'
p2531
asbag62
(g83
g64
NtRp2532
(dp2533
g67
(dp2534
g94
g95
ssg76
g2523
sg69
(lp2535
S':'
asbag62
(g83
g64
NtRp2536
(dp2537
g67
(dp2538
sg76
g2523
sg69
(lp2539
g62
(g63
g64
NtRp2540
(dp2541
g67
(dp2542
g75
I3
ssg76
g2536
sg69
(lp2543
g882
asbasbasbag62
(g78
g64
NtRp2544
(dp2545
g67
(dp2546
sg76
g2477
sg69
(lp2547
g62
(g83
g64
NtRp2548
(dp2549
g67
(dp2550
g87
g88
ssg76
g2544
sg69
(lp2551
S'HTTP_ACCEPT_LANGUAGE'
p2552
asbag62
(g83
g64
NtRp2553
(dp2554
g67
(dp2555
g94
g95
ssg76
g2544
sg69
(lp2556
S':'
asbag62
(g83
g64
NtRp2557
(dp2558
g67
(dp2559
sg76
g2544
sg69
(lp2560
g62
(g63
g64
NtRp2561
(dp2562
g67
(dp2563
g75
I3
ssg76
g2557
sg69
(lp2564
g904
asbasbasbag62
(g78
g64
NtRp2565
(dp2566
g67
(dp2567
sg76
g2477
sg69
(lp2568
g62
(g83
g64
NtRp2569
(dp2570
g67
(dp2571
g87
g88
ssg76
g2565
sg69
(lp2572
S'HTTP_CONNECTION'
p2573
asbag62
(g83
g64
NtRp2574
(dp2575
g67
(dp2576
g94
g95
ssg76
g2565
sg69
(lp2577
S':'
asbag62
(g83
g64
NtRp2578
(dp2579
g67
(dp2580
sg76
g2565
sg69
(lp2581
g62
(g63
g64
NtRp2582
(dp2583
g67
(dp2584
g75
I3
ssg76
g2578
sg69
(lp2585
g926
asbasbasbag62
(g78
g64
NtRp2586
(dp2587
g67
(dp2588
sg76
g2477
sg69
(lp2589
g62
(g83
g64
NtRp2590
(dp2591
g67
(dp2592
g87
g88
ssg76
g2586
sg69
(lp2593
S'HTTP_COOKIE'
p2594
asbag62
(g83
g64
NtRp2595
(dp2596
g67
(dp2597
g94
g95
ssg76
g2586
sg69
(lp2598
S':'
asbag62
(g83
g64
NtRp2599
(dp2600
g67
(dp2601
sg76
g2586
sg69
(lp2602
g62
(g63
g64
NtRp2603
(dp2604
g67
(dp2605
g75
I3
ssg76
g2599
sg69
(lp2606
g948
asbasbasbag62
(g78
g64
NtRp2607
(dp2608
g67
(dp2609
sg76
g2477
sg69
(lp2610
g62
(g83
g64
NtRp2611
(dp2612
g67
(dp2613
g87
g88
ssg76
g2607
sg69
(lp2614
S'HTTP_HOST'
p2615
asbag62
(g83
g64
NtRp2616
(dp2617
g67
(dp2618
g94
g95
ssg76
g2607
sg69
(lp2619
S':'
asbag62
(g83
g64
NtRp2620
(dp2621
g67
(dp2622
sg76
g2607
sg69
(lp2623
g62
(g63
g64
NtRp2624
(dp2625
g67
(dp2626
g75
I3
ssg76
g2620
sg69
(lp2627
g970
asbasbasbag62
(g78
g64
NtRp2628
(dp2629
g67
(dp2630
sg76
g2477
sg69
(lp2631
g62
(g83
g64
NtRp2632
(dp2633
g67
(dp2634
g87
g88
ssg76
g2628
sg69
(lp2635
S'HTTP_REFERER'
p2636
asbag62
(g83
g64
NtRp2637
(dp2638
g67
(dp2639
g94
g95
ssg76
g2628
sg69
(lp2640
S':'
asbag62
(g83
g64
NtRp2641
(dp2642
g67
(dp2643
sg76
g2628
sg69
(lp2644
g62
(g63
g64
NtRp2645
(dp2646
g67
(dp2647
g75
I3
ssg76
g2641
sg69
(lp2648
g992
asbasbasbag62
(g78
g64
NtRp2649
(dp2650
g67
(dp2651
sg76
g2477
sg69
(lp2652
g62
(g83
g64
NtRp2653
(dp2654
g67
(dp2655
g87
g88
ssg76
g2649
sg69
(lp2656
S'HTTP_USER_AGENT'
p2657
asbag62
(g83
g64
NtRp2658
(dp2659
g67
(dp2660
g94
g95
ssg76
g2649
sg69
(lp2661
S':'
asbag62
(g83
g64
NtRp2662
(dp2663
g67
(dp2664
sg76
g2649
sg69
(lp2665
g62
(g63
g64
NtRp2666
(dp2667
g67
(dp2668
g75
I3
ssg76
g2662
sg69
(lp2669
g1014
asbasbasbag62
(g78
g64
NtRp2670
(dp2671
g67
(dp2672
sg76
g2477
sg69
(lp2673
g62
(g83
g64
NtRp2674
(dp2675
g67
(dp2676
g87
g88
ssg76
g2670
sg69
(lp2677
S'PATH_INFO'
p2678
asbag62
(g83
g64
NtRp2679
(dp2680
g67
(dp2681
g94
g95
ssg76
g2670
sg69
(lp2682
S':'
asbag62
(g83
g64
NtRp2683
(dp2684
g67
(dp2685
sg76
g2670
sg69
(lp2686
g62
(g63
g64
NtRp2687
(dp2688
g67
(dp2689
g75
I3
ssg76
g2683
sg69
(lp2690
g1190
asbasbasbag62
(g78
g64
NtRp2691
(dp2692
g67
(dp2693
sg76
g2477
sg69
(lp2694
g62
(g83
g64
NtRp2695
(dp2696
g67
(dp2697
g87
g88
ssg76
g2691
sg69
(lp2698
S'QUERY_STRING'
p2699
asbag62
(g83
g64
NtRp2700
(dp2701
g67
(dp2702
g94
g95
ssg76
g2691
sg69
(lp2703
S':'
asbag62
(g83
g64
NtRp2704
(dp2705
g67
(dp2706
sg76
g2691
sg69
(lp2707
g62
(g63
g64
NtRp2708
(dp2709
g67
(dp2710
g75
I3
ssg76
g2704
sg69
(lp2711
S''
asbasbasbag62
(g78
g64
NtRp2712
(dp2713
g67
(dp2714
sg76
g2477
sg69
(lp2715
g62
(g83
g64
NtRp2716
(dp2717
g67
(dp2718
g87
g88
ssg76
g2712
sg69
(lp2719
S'REMOTE_ADDR'
p2720
asbag62
(g83
g64
NtRp2721
(dp2722
g67
(dp2723
g94
g95
ssg76
g2712
sg69
(lp2724
S':'
asbag62
(g83
g64
NtRp2725
(dp2726
g67
(dp2727
sg76
g2712
sg69
(lp2728
g62
(g63
g64
NtRp2729
(dp2730
g67
(dp2731
g75
I3
ssg76
g2725
sg69
(lp2732
g230
asbasbasbag62
(g78
g64
NtRp2733
(dp2734
g67
(dp2735
sg76
g2477
sg69
(lp2736
g62
(g83
g64
NtRp2737
(dp2738
g67
(dp2739
g87
g88
ssg76
g2733
sg69
(lp2740
S'REMOTE_PORT'
p2741
asbag62
(g83
g64
NtRp2742
(dp2743
g67
(dp2744
g94
g95
ssg76
g2733
sg69
(lp2745
S':'
asbag62
(g83
g64
NtRp2746
(dp2747
g67
(dp2748
sg76
g2733
sg69
(lp2749
g62
(g63
g64
NtRp2750
(dp2751
g67
(dp2752
g75
I3
ssg76
g2746
sg69
(lp2753
g1254
asbasbasbag62
(g78
g64
NtRp2754
(dp2755
g67
(dp2756
sg76
g2477
sg69
(lp2757
g62
(g83
g64
NtRp2758
(dp2759
g67
(dp2760
g87
g88
ssg76
g2754
sg69
(lp2761
S'REQUEST_METHOD'
p2762
asbag62
(g83
g64
NtRp2763
(dp2764
g67
(dp2765
g94
g95
ssg76
g2754
sg69
(lp2766
S':'
asbag62
(g83
g64
NtRp2767
(dp2768
g67
(dp2769
sg76
g2754
sg69
(lp2770
g62
(g63
g64
NtRp2771
(dp2772
g67
(dp2773
g75
I3
ssg76
g2767
sg69
(lp2774
g1276
asbasbasbag62
(g78
g64
NtRp2775
(dp2776
g67
(dp2777
sg76
g2477
sg69
(lp2778
g62
(g83
g64
NtRp2779
(dp2780
g67
(dp2781
g87
g88
ssg76
g2775
sg69
(lp2782
S'REQUEST_URI'
p2783
asbag62
(g83
g64
NtRp2784
(dp2785
g67
(dp2786
g94
g95
ssg76
g2775
sg69
(lp2787
S':'
asbag62
(g83
g64
NtRp2788
(dp2789
g67
(dp2790
sg76
g2775
sg69
(lp2791
g62
(g63
g64
NtRp2792
(dp2793
g67
(dp2794
g75
I3
ssg76
g2788
sg69
(lp2795
g1298
asbasbasbag62
(g78
g64
NtRp2796
(dp2797
g67
(dp2798
sg76
g2477
sg69
(lp2799
g62
(g83
g64
NtRp2800
(dp2801
g67
(dp2802
g87
g88
ssg76
g2796
sg69
(lp2803
S'SCRIPT_NAME'
p2804
asbag62
(g83
g64
NtRp2805
(dp2806
g67
(dp2807
g94
g95
ssg76
g2796
sg69
(lp2808
S':'
asbag62
(g83
g64
NtRp2809
(dp2810
g67
(dp2811
sg76
g2796
sg69
(lp2812
g62
(g63
g64
NtRp2813
(dp2814
g67
(dp2815
g75
I3
ssg76
g2809
sg69
(lp2816
S''
asbasbasbag62
(g78
g64
NtRp2817
(dp2818
g67
(dp2819
sg76
g2477
sg69
(lp2820
g62
(g83
g64
NtRp2821
(dp2822
g67
(dp2823
g87
g88
ssg76
g2817
sg69
(lp2824
S'SERVER_NAME'
p2825
asbag62
(g83
g64
NtRp2826
(dp2827
g67
(dp2828
g94
g95
ssg76
g2817
sg69
(lp2829
S':'
asbag62
(g83
g64
NtRp2830
(dp2831
g67
(dp2832
sg76
g2817
sg69
(lp2833
g62
(g63
g64
NtRp2834
(dp2835
g67
(dp2836
g75
I3
ssg76
g2830
sg69
(lp2837
g1155
asbasbasbag62
(g78
g64
NtRp2838
(dp2839
g67
(dp2840
sg76
g2477
sg69
(lp2841
g62
(g83
g64
NtRp2842
(dp2843
g67
(dp2844
g87
g88
ssg76
g2838
sg69
(lp2845
S'SERVER_PORT'
p2846
asbag62
(g83
g64
NtRp2847
(dp2848
g67
(dp2849
g94
g95
ssg76
g2838
sg69
(lp2850
S':'
asbag62
(g83
g64
NtRp2851
(dp2852
g67
(dp2853
sg76
g2838
sg69
(lp2854
g62
(g63
g64
NtRp2855
(dp2856
g67
(dp2857
g75
I3
ssg76
g2851
sg69
(lp2858
g1362
asbasbasbag62
(g78
g64
NtRp2859
(dp2860
g67
(dp2861
sg76
g2477
sg69
(lp2862
g62
(g83
g64
NtRp2863
(dp2864
g67
(dp2865
g87
g88
ssg76
g2859
sg69
(lp2866
S'SERVER_PROTOCOL'
p2867
asbag62
(g83
g64
NtRp2868
(dp2869
g67
(dp2870
g94
g95
ssg76
g2859
sg69
(lp2871
S':'
asbag62
(g83
g64
NtRp2872
(dp2873
g67
(dp2874
sg76
g2859
sg69
(lp2875
g62
(g63
g64
NtRp2876
(dp2877
g67
(dp2878
g75
I3
ssg76
g2872
sg69
(lp2879
g1384
asbasbasbag62
(g78
g64
NtRp2880
(dp2881
g67
(dp2882
sg76
g2477
sg69
(lp2883
g62
(g83
g64
NtRp2884
(dp2885
g67
(dp2886
g87
g88
ssg76
g2880
sg69
(lp2887
S'SERVER_SOFTWARE'
p2888
asbag62
(g83
g64
NtRp2889
(dp2890
g67
(dp2891
g94
g95
ssg76
g2880
sg69
(lp2892
S':'
asbag62
(g83
g64
NtRp2893
(dp2894
g67
(dp2895
sg76
g2880
sg69
(lp2896
g62
(g63
g64
NtRp2897
(dp2898
g67
(dp2899
g75
I3
ssg76
g2893
sg69
(lp2900
g1406
asbasbasbag62
(g78
g64
NtRp2901
(dp2902
g67
(dp2903
sg76
g2477
sg69
(lp2904
g62
(g83
g64
NtRp2905
(dp2906
g67
(dp2907
g87
g88
ssg76
g2901
sg69
(lp2908
S'SSL_CLIENT_RAW_CERT'
p2909
asbag62
(g83
g64
NtRp2910
(dp2911
g67
(dp2912
g94
g95
ssg76
g2901
sg69
(lp2913
S':'
asbag62
(g83
g64
NtRp2914
(dp2915
g67
(dp2916
sg76
g2901
sg69
(lp2917
g62
(g63
g64
NtRp2918
(dp2919
g67
(dp2920
g75
I3
ssg76
g2914
sg69
(lp2921
S'None'
p2922
asbasbasbag62
(g78
g64
NtRp2923
(dp2924
g67
(dp2925
sg76
g2477
sg69
(lp2926
g62
(g83
g64
NtRp2927
(dp2928
g67
(dp2929
g87
g88
ssg76
g2923
sg69
(lp2930
S'WEB2PY_ORIGINAL_URI'
p2931
asbag62
(g83
g64
NtRp2932
(dp2933
g67
(dp2934
g94
g95
ssg76
g2923
sg69
(lp2935
S':'
asbag62
(g83
g64
NtRp2936
(dp2937
g67
(dp2938
sg76
g2923
sg69
(lp2939
g62
(g63
g64
NtRp2940
(dp2941
g67
(dp2942
g75
I3
ssg76
g2936
sg69
(lp2943
g1190
asbasbasbag62
(g78
g64
NtRp2944
(dp2945
g67
(dp2946
sg76
g2477
sg69
(lp2947
g62
(g83
g64
NtRp2948
(dp2949
g67
(dp2950
g87
g88
ssg76
g2944
sg69
(lp2951
S'wsgi.errors'
p2952
asbag62
(g83
g64
NtRp2953
(dp2954
g67
(dp2955
g94
g95
ssg76
g2944
sg69
(lp2956
S':'
asbag62
(g83
g64
NtRp2957
(dp2958
g67
(dp2959
sg76
g2944
sg69
(lp2960
g62
(g63
g64
NtRp2961
(dp2962
g67
(dp2963
g75
I3
ssg76
g2957
sg69
(lp2964
S"<open file '<stderr>', mode 'w' at 0xb73f70d0>"
p2965
asbasbasbag62
(g78
g64
NtRp2966
(dp2967
g67
(dp2968
sg76
g2477
sg69
(lp2969
g62
(g83
g64
NtRp2970
(dp2971
g67
(dp2972
g87
g88
ssg76
g2966
sg69
(lp2973
S'wsgi.file_wrapper'
p2974
asbag62
(g83
g64
NtRp2975
(dp2976
g67
(dp2977
g94
g95
ssg76
g2966
sg69
(lp2978
S':'
asbag62
(g83
g64
NtRp2979
(dp2980
g67
(dp2981
sg76
g2966
sg69
(lp2982
g62
(g63
g64
NtRp2983
(dp2984
g67
(dp2985
g75
I3
ssg76
g2979
sg69
(lp2986
S'<class wsgiref.util.FileWrapper at 0x8db259c>'
p2987
asbasbasbag62
(g78
g64
NtRp2988
(dp2989
g67
(dp2990
sg76
g2477
sg69
(lp2991
g62
(g83
g64
NtRp2992
(dp2993
g67
(dp2994
g87
g88
ssg76
g2988
sg69
(lp2995
S'wsgi.input'
p2996
asbag62
(g83
g64
NtRp2997
(dp2998
g67
(dp2999
g94
g95
ssg76
g2988
sg69
(lp3000
S':'
asbag62
(g83
g64
NtRp3001
(dp3002
g67
(dp3003
sg76
g2988
sg69
(lp3004
g62
(g63
g64
NtRp3005
(dp3006
g67
(dp3007
g75
I3
ssg76
g3001
sg69
(lp3008
S'<cStringIO.StringO object at 0x961f600>'
p3009
asbasbasbag62
(g78
g64
NtRp3010
(dp3011
g67
(dp3012
sg76
g2477
sg69
(lp3013
g62
(g83
g64
NtRp3014
(dp3015
g67
(dp3016
g87
g88
ssg76
g3010
sg69
(lp3017
S'wsgi.multiprocess'
p3018
asbag62
(g83
g64
NtRp3019
(dp3020
g67
(dp3021
g94
g95
ssg76
g3010
sg69
(lp3022
S':'
asbag62
(g83
g64
NtRp3023
(dp3024
g67
(dp3025
sg76
g3010
sg69
(lp3026
g62
(g63
g64
NtRp3027
(dp3028
g67
(dp3029
g75
I3
ssg76
g3023
sg69
(lp3030
g105
asbasbasbag62
(g78
g64
NtRp3031
(dp3032
g67
(dp3033
sg76
g2477
sg69
(lp3034
g62
(g83
g64
NtRp3035
(dp3036
g67
(dp3037
g87
g88
ssg76
g3031
sg69
(lp3038
S'wsgi.multithread'
p3039
asbag62
(g83
g64
NtRp3040
(dp3041
g67
(dp3042
g94
g95
ssg76
g3031
sg69
(lp3043
S':'
asbag62
(g83
g64
NtRp3044
(dp3045
g67
(dp3046
sg76
g3031
sg69
(lp3047
g62
(g63
g64
NtRp3048
(dp3049
g67
(dp3050
g75
I3
ssg76
g3044
sg69
(lp3051
g1666
asbasbasbag62
(g78
g64
NtRp3052
(dp3053
g67
(dp3054
sg76
g2477
sg69
(lp3055
g62
(g83
g64
NtRp3056
(dp3057
g67
(dp3058
g87
g88
ssg76
g3052
sg69
(lp3059
S'wsgi.run_once'
p3060
asbag62
(g83
g64
NtRp3061
(dp3062
g67
(dp3063
g94
g95
ssg76
g3052
sg69
(lp3064
S':'
asbag62
(g83
g64
NtRp3065
(dp3066
g67
(dp3067
sg76
g3052
sg69
(lp3068
g62
(g63
g64
NtRp3069
(dp3070
g67
(dp3071
g75
I3
ssg76
g3065
sg69
(lp3072
g105
asbasbasbag62
(g78
g64
NtRp3073
(dp3074
g67
(dp3075
sg76
g2477
sg69
(lp3076
g62
(g83
g64
NtRp3077
(dp3078
g67
(dp3079
g87
g88
ssg76
g3073
sg69
(lp3080
S'wsgi.url_scheme'
p3081
asbag62
(g83
g64
NtRp3082
(dp3083
g67
(dp3084
g94
g95
ssg76
g3073
sg69
(lp3085
S':'
asbag62
(g83
g64
NtRp3086
(dp3087
g67
(dp3088
sg76
g3073
sg69
(lp3089
g62
(g63
g64
NtRp3090
(dp3091
g67
(dp3092
g75
I3
ssg76
g3086
sg69
(lp3093
g1709
asbasbasbag62
(g78
g64
NtRp3094
(dp3095
g67
(dp3096
sg76
g2477
sg69
(lp3097
g62
(g83
g64
NtRp3098
(dp3099
g67
(dp3100
g87
g88
ssg76
g3094
sg69
(lp3101
S'wsgi.version'
p3102
asbag62
(g83
g64
NtRp3103
(dp3104
g67
(dp3105
g94
g95
ssg76
g3094
sg69
(lp3106
S':'
asbag62
(g83
g64
NtRp3107
(dp3108
g67
(dp3109
sg76
g3094
sg69
(lp3110
g62
(g63
g64
NtRp3111
(dp3112
g67
(dp3113
g75
I3
ssg76
g3107
sg69
(lp3114
S'1'
asbasbasbasbasbasbasbasbasbasbasbasbasbsS'frames'
p3115
(lp3116
(dp3117
S'file'
p3118
S'/opt/smb4manager/gluon/restricted.py'
p3119
sS'dump'
p3120
(dp3121
S'environment'
p3122
S"{'A': <class 'gluon.html.A'>, 'ALLOW_TOGGLE': 'true', 'A_button': <function A_button>, 'B': <class 'gluon.html.B'>, 'BEAUTIFY': <class 'gluon.html.BEAUTIFY'>, 'BODY': <class 'gluon.html.BODY'>, 'BR': <class 'gluon.html.BR'>, 'BUTTON': <class 'gluon.html.BUTTON'>, 'CAT': <class 'gluon.html.CAT'>, 'CENTER': <class 'gluon.html.CENTER'>, ...}"
p3123
sS'ccode'
p3124
S'<code object <module> at 0xb049ba88, file "/opt/...plications/admin/controllers/default.py", line 3>'
p3125
ssS'lnum'
p3126
I212
sS'lines'
p3127
(dp3128
I207
S'    try:'
p3129
sI208
S'        if isinstance(code, types.CodeType):'
p3130
sI209
S'            ccode = code'
p3131
sI210
S'        else:'
p3132
sI211
S'            ccode = compile2(code, layer)'
p3133
sI212
S'        exec ccode in environment'
p3134
sI213
S'    except HTTP:'
p3135
sI214
S'        raise'
p3136
sI215
S'    except RestrictedError:'
p3137
sI216
S'        # do not encapsulate (obfuscate) the original RestrictedError'
p3138
ssS'call'
p3139
S"(code='# coding: utf8\\n\\nEXPERIMENTAL_STUFF = True\\n\\nif EX...m=form)\\n\\nresponse._vars=response._caller(design)\\n', environment={'A': <class 'gluon.html.A'>, 'ALLOW_TOGGLE': 'true', 'A_button': <function A_button>, 'B': <class 'gluon.html.B'>, 'BEAUTIFY': <class 'gluon.html.BEAUTIFY'>, 'BODY': <class 'gluon.html.BODY'>, 'BR': <class 'gluon.html.BR'>, 'BUTTON': <class 'gluon.html.BUTTON'>, 'CAT': <class 'gluon.html.CAT'>, 'CENTER': <class 'gluon.html.CENTER'>, ...}, layer='/opt/smb4manager/applications/admin/controllers/default.py')"
p3140
sS'func'
p3141
S'restricted'
p3142
sa(dp3143
g3118
S'/opt/smb4manager/applications/admin/controllers/default.py'
p3144
sg3120
(dp3145
sg3126
I1787
sg3127
(dp3146
I1776
S'                "Git repo updated with latest application changes.")'
p3147
sI1777
S"            redirect(URL('site'))"
p3148
sI1778
S'        except UnmergedEntriesError:'
p3149
sI1779
S'            session.flash = T("Push failed, there are unmerged entries in the cache. Resolve merge issues manually and try again.")'
p3150
sI1780
S"            redirect(URL('site'))"
p3151
sI1781
S'        except Exception, e:'
p3152
sI1782
S'            session.flash = T('
p3153
sI1783
S'                "Push failed, git exited abnormally. See logs for details.")'
p3154
sI1784
S"            redirect(URL('site'))"
p3155
sI1785
S'    return dict(app=app, form=form)'
p3156
ssg3139
S'()'
p3157
sg3141
S'<module>'
p3158
sa(dp3159
g3118
S'/opt/smb4manager/gluon/globals.py'
p3160
sg3120
(dp3161
S'self'
p3162
S'undefined'
p3163
sS'f'
S'<function design>'
p3164
ssg3126
I188
sg3127
(dp3165
I192
S''
sI183
S'        self.menu = []             # used by the default view layout'
p3166
sI184
S'        self.files = []            # used by web2py_ajax.html'
p3167
sI185
S'        self.generic_patterns = []  # patterns to allow generic views'
p3168
sI186
S"        self.delimiters = ('{{', '}}')"
p3169
sI187
S'        self._vars = None'
p3170
sI188
S'        self._caller = lambda f: f()'
p3171
sI189
S'        self._view_environment = None'
p3172
sI190
S'        self._custom_commit = None'
p3173
sI191
S'        self._custom_rollback = None'
p3174
ssg3139
S'(f=<function design>)'
p3175
sg3141
S'<lambda>'
p3176
sa(dp3177
g3118
S'/opt/smb4manager/applications/admin/controllers/default.py'
p3178
sg3120
(dp3179
S'global read_possible_languages'
p3180
S'<function read_possible_languages>'
p3181
sS').iteritems'
p3182
g3163
sS'langpath'
p3183
S"'/opt/smb4manager/applications/dashboard/languages'"
p3184
ssg3126
I1013
sg3127
(dp3185
I1008
S'    statics.sort()'
p3186
sI1009
S''
sI1010
S'    # Get all languages'
p3187
sI1011
S"    langpath = os.path.join(apath(app, r=request),'languages')"
p3188
sI1012
S'    languages = dict([(lang, info) for lang, info'
p3189
sI1013
S'                      in read_possible_languages(langpath).iteritems()'
p3190
sI1014
S'                      if info[2] != 0])  # info[2] is langfile_mtime:'
p3191
sI1015
S'                                         # get only existed files'
p3192
sI1016
S''
sI1017
S'    #Get crontab'
p3193
ssg3139
S'()'
p3194
sg3141
S'design'
p3195
sa(dp3196
g3118
S'/opt/smb4manager/gluon/languages.py'
p3197
sg3120
(dp3198
S'global read_possible_languages_aux'
p3199
S'<function read_possible_languages_aux>'
p3200
sS'langdir'
p3201
S"'/opt/smb4manager/applications/dashboard/languages/languages'"
p3202
ssg3126
I267
sg3127
(dp3203
I262
S''
sI263
S''
sI264
S'def read_possible_languages(appdir):'
p3204
sI265
S"    langdir = pjoin(appdir, 'languages')"
p3205
sI266
S"    return getcfs('langs:' + langdir, langdir,"
p3206
sI267
S'                  lambda: read_possible_languages_aux(langdir))'
p3207
sI268
S''
sI269
S''
sI270
S'def read_plural_dict_aux(filename):'
p3208
sI271
S"    lang_text = portalocker.read_locked(filename).replace('\\r\\n', '\\n')"
p3209
ssg3139
S"(appdir='/opt/smb4manager/applications/dashboard/languages')"
p3210
sg3141
S'read_possible_languages'
p3211
sa(dp3212
g3118
S'/opt/smb4manager/gluon/cfs.py'
p3213
sg3120
(dp3214
S'filter'
p3215
S'<function <lambda>>'
p3216
sS'builtincallable'
p3217
S'<built-in function callable>'
p3218
ssg3126
I40
sg3127
(dp3219
I35
S'    This is used on Google App Engine since pyc files cannot be saved.'
p3220
sI36
S'    """'
p3221
sI37
S'    try:'
p3222
sI38
S'        t = stat(filename).st_mtime'
p3223
sI39
S'    except OSError:'
p3224
sI40
S"        return filter() if callable(filter) else ''"
p3225
sI41
S'    cfs_lock.acquire()'
p3226
sI42
S'    item = cfs.get(key, None)'
p3227
sI43
S'    cfs_lock.release()'
p3228
sI44
S'    if item and item[0] == t:'
p3229
ssg3139
S"(key='langs:/opt/smb4manager/applications/dashboard/languages/languages', filename='/opt/smb4manager/applications/dashboard/languages/languages', filter=<function <lambda>>)"
p3230
sg3141
S'getcfs'
p3231
sa(dp3232
g3118
S'/opt/smb4manager/gluon/languages.py'
p3233
sg3120
(dp3234
S'global read_possible_languages_aux'
p3235
S'<function read_possible_languages_aux>'
p3236
sS'langdir'
p3237
S"'/opt/smb4manager/applications/dashboard/languages/languages'"
p3238
ssg3126
I267
sg3127
(dp3239
I262
S''
sI263
S''
sI264
S'def read_possible_languages(appdir):'
p3240
sI265
S"    langdir = pjoin(appdir, 'languages')"
p3241
sI266
S"    return getcfs('langs:' + langdir, langdir,"
p3242
sI267
S'                  lambda: read_possible_languages_aux(langdir))'
p3243
sI268
S''
sI269
S''
sI270
S'def read_plural_dict_aux(filename):'
p3244
sI271
S"    lang_text = portalocker.read_locked(filename).replace('\\r\\n', '\\n')"
p3245
ssg3139
S'()'
p3246
sg3141
g3176
sa(dp3247
g3118
S'/opt/smb4manager/gluon/languages.py'
p3248
sg3120
(dp3249
S'global oslistdir'
p3250
S'<built-in function listdir>'
p3251
sS'langdir'
p3252
S"'/opt/smb4manager/applications/dashboard/languages/languages'"
p3253
sS'flist'
p3254
g3163
ssg3126
I231
sg3127
(dp3255
I226
S'                nplurals,        # nplurals for current language'
p3256
sI227
S'                get_plural_id,   # get_plural_id() for current language'
p3257
sI228
S'                construct_plural_form)  # construct_plural_form() for current language'
p3258
sI229
S''
sI230
S'    plurals = {}'
p3259
sI231
S'    flist = oslistdir(langdir)'
p3260
sI232
S'    # scan languages directory for plural dict files:'
p3261
sI233
S'    for pname in flist:'
p3262
sI234
S'        if regex_plural_file.match(pname):'
p3263
sI235
S'            plurals[pname[7:-3]] = (pname,'
p3264
ssg3139
S"(langdir='/opt/smb4manager/applications/dashboard/languages/languages')"
p3265
sg3141
S'read_possible_languages_aux'
p3266
sasS'pyver'
p3267
S'Python 2.7.3: /usr/bin/python'
p3268
sS'session'
p3269
g62
(g63
g64
NtRp3270
(dp3271
g67
(dp3272
sg69
(lp3273
g62
(g71
g64
NtRp3274
(dp3275
g67
(dp3276
g75
I5
ssg76
Nsg69
(lp3277
g62
(g78
g64
NtRp3278
(dp3279
g67
(dp3280
sg76
g3274
sg69
(lp3281
g62
(g83
g64
NtRp3282
(dp3283
g67
(dp3284
g87
g88
ssg76
g3278
sg69
(lp3285
S'authorized'
p3286
asbag62
(g83
g64
NtRp3287
(dp3288
g67
(dp3289
g94
g95
ssg76
g3278
sg69
(lp3290
S':'
asbag62
(g83
g64
NtRp3291
(dp3292
g67
(dp3293
sg76
g3278
sg69
(lp3294
g62
(g63
g64
NtRp3295
(dp3296
g67
(dp3297
g75
I5
ssg76
g3291
sg69
(lp3298
g1666
asbasbasbag62
(g78
g64
NtRp3299
(dp3300
g67
(dp3301
sg76
g3274
sg69
(lp3302
g62
(g83
g64
NtRp3303
(dp3304
g67
(dp3305
g87
g88
ssg76
g3299
sg69
(lp3306
S'check_version'
p3307
asbag62
(g83
g64
NtRp3308
(dp3309
g67
(dp3310
g94
g95
ssg76
g3299
sg69
(lp3311
S':'
asbag62
(g83
g64
NtRp3312
(dp3313
g67
(dp3314
sg76
g3299
sg69
(lp3315
g62
(g63
g64
NtRp3316
(dp3317
g67
(dp3318
g75
I5
ssg76
g3312
sg69
(lp3319
g105
asbasbasbag62
(g78
g64
NtRp3320
(dp3321
g67
(dp3322
sg76
g3274
sg69
(lp3323
g62
(g83
g64
NtRp3324
(dp3325
g67
(dp3326
g87
g88
ssg76
g3320
sg69
(lp3327
S'is_mobile'
p3328
asbag62
(g83
g64
NtRp3329
(dp3330
g67
(dp3331
g94
g95
ssg76
g3320
sg69
(lp3332
S':'
asbag62
(g83
g64
NtRp3333
(dp3334
g67
(dp3335
sg76
g3320
sg69
(lp3336
g62
(g63
g64
NtRp3337
(dp3338
g67
(dp3339
g75
I5
ssg76
g3333
sg69
(lp3340
S'auto'
p3341
asbasbasbag62
(g78
g64
NtRp3342
(dp3343
g67
(dp3344
sg76
g3274
sg69
(lp3345
g62
(g83
g64
NtRp3346
(dp3347
g67
(dp3348
g87
g88
ssg76
g3342
sg69
(lp3349
S'last_time'
p3350
asbag62
(g83
g64
NtRp3351
(dp3352
g67
(dp3353
g94
g95
ssg76
g3342
sg69
(lp3354
S':'
asbag62
(g83
g64
NtRp3355
(dp3356
g67
(dp3357
sg76
g3342
sg69
(lp3358
g62
(g63
g64
NtRp3359
(dp3360
g67
(dp3361
g75
I5
ssg76
g3355
sg69
(lp3362
S'1359385744.72366'
p3363
asbasbasbag62
(g78
g64
NtRp3364
(dp3365
g67
(dp3366
sg76
g3274
sg69
(lp3367
g62
(g83
g64
NtRp3368
(dp3369
g67
(dp3370
g87
g88
ssg76
g3364
sg69
(lp3371
S'pam_user'
p3372
asbag62
(g83
g64
NtRp3373
(dp3374
g67
(dp3375
g94
g95
ssg76
g3364
sg69
(lp3376
S':'
asbag62
(g83
g64
NtRp3377
(dp3378
g67
(dp3379
sg76
g3364
sg69
(lp3380
g62
(g63
g64
NtRp3381
(dp3382
g67
(dp3383
g75
I5
ssg76
g3377
sg69
(lp3384
S'None'
p3385
asbasbasbag62
(g78
g64
NtRp3386
(dp3387
g67
(dp3388
sg76
g3274
sg69
(lp3389
g62
(g83
g64
NtRp3390
(dp3391
g67
(dp3392
g87
g88
ssg76
g3386
sg69
(lp3393
S'token'
p3394
asbag62
(g83
g64
NtRp3395
(dp3396
g67
(dp3397
g94
g95
ssg76
g3386
sg69
(lp3398
S':'
asbag62
(g83
g64
NtRp3399
(dp3400
g67
(dp3401
sg76
g3386
sg69
(lp3402
g62
(g63
g64
NtRp3403
(dp3404
g67
(dp3405
g75
I5
ssg76
g3399
sg69
(lp3406
S'f08e1d27-de12-471e-b7c5-5c90ad92c01c'
p3407
asbasbasbasbasbsS'etype'
p3408
S"<type 'exceptions.OSError'>"
p3409
sS'date'
p3410
S'Mon Jan 28 13:09:04 2013'
p3411
sS'response'
p3412
g62
(g63
g64
NtRp3413
(dp3414
g67
(dp3415
sg69
(lp3416
g62
(g71
g64
NtRp3417
(dp3418
g67
(dp3419
g75
I5
ssg76
Nsg69
(lp3420
g62
(g78
g64
NtRp3421
(dp3422
g67
(dp3423
sg76
g3417
sg69
(lp3424
g62
(g83
g64
NtRp3425
(dp3426
g67
(dp3427
g87
g88
ssg76
g3421
sg69
(lp3428
g173
asbag62
(g83
g64
NtRp3429
(dp3430
g67
(dp3431
g94
g95
ssg76
g3421
sg69
(lp3432
S':'
asbag62
(g83
g64
NtRp3433
(dp3434
g67
(dp3435
sg76
g3421
sg69
(lp3436
g62
(g63
g64
NtRp3437
(dp3438
g67
(dp3439
g75
I5
ssg76
g3433
sg69
(lp3440
S'<cStringIO.StringO object at 0x9620ca0>'
p3441
asbasbasbag62
(g78
g64
NtRp3442
(dp3443
g67
(dp3444
sg76
g3417
sg69
(lp3445
g62
(g83
g64
NtRp3446
(dp3447
g67
(dp3448
g87
g88
ssg76
g3442
sg69
(lp3449
g261
asbag62
(g83
g64
NtRp3450
(dp3451
g67
(dp3452
g94
g95
ssg76
g3442
sg69
(lp3453
S':'
asbag62
(g83
g64
NtRp3454
(dp3455
g67
(dp3456
sg76
g3442
sg69
(lp3457
g62
(g63
g64
NtRp3458
(dp3459
g67
(dp3460
g75
I5
ssg76
g3454
sg69
(lp3461
g62
(g71
g64
NtRp3462
(dp3463
g67
(dp3464
g75
I4
ssg76
Nsg69
(lp3465
g62
(g78
g64
NtRp3466
(dp3467
g67
(dp3468
sg76
g3462
sg69
(lp3469
g62
(g83
g64
NtRp3470
(dp3471
g67
(dp3472
g87
g88
ssg76
g3466
sg69
(lp3473
S'session_id_admin'
p3474
asbag62
(g83
g64
NtRp3475
(dp3476
g67
(dp3477
g94
g95
ssg76
g3466
sg69
(lp3478
S':'
asbag62
(g83
g64
NtRp3479
(dp3480
g67
(dp3481
sg76
g3466
sg69
(lp3482
g62
(g63
g64
NtRp3483
(dp3484
g67
(dp3485
g75
I4
ssg76
g3479
sg69
(lp3486
g299
ag62
(g71
g64
NtRp3487
(dp3488
g67
(dp3489
g75
I3
ssg76
Nsg69
(lp3490
g62
(g78
g64
NtRp3491
(dp3492
g67
(dp3493
sg76
g3487
sg69
(lp3494
g62
(g83
g64
NtRp3495
(dp3496
g67
(dp3497
g87
g88
ssg76
g3491
sg69
(lp3498
g312
asbag62
(g83
g64
NtRp3499
(dp3500
g67
(dp3501
g94
g95
ssg76
g3491
sg69
(lp3502
S':'
asbag62
(g83
g64
NtRp3503
(dp3504
g67
(dp3505
sg76
g3491
sg69
(lp3506
g62
(g63
g64
NtRp3507
(dp3508
g67
(dp3509
g75
I3
ssg76
g3503
sg69
(lp3510
S''
asbasbasbag62
(g78
g64
NtRp3511
(dp3512
g67
(dp3513
sg76
g3487
sg69
(lp3514
g62
(g83
g64
NtRp3515
(dp3516
g67
(dp3517
g87
g88
ssg76
g3511
sg69
(lp3518
g333
asbag62
(g83
g64
NtRp3519
(dp3520
g67
(dp3521
g94
g95
ssg76
g3511
sg69
(lp3522
S':'
asbag62
(g83
g64
NtRp3523
(dp3524
g67
(dp3525
sg76
g3511
sg69
(lp3526
g62
(g63
g64
NtRp3527
(dp3528
g67
(dp3529
g75
I3
ssg76
g3523
sg69
(lp3530
S''
asbasbasbag62
(g78
g64
NtRp3531
(dp3532
g67
(dp3533
sg76
g3487
sg69
(lp3534
g62
(g83
g64
NtRp3535
(dp3536
g67
(dp3537
g87
g88
ssg76
g3531
sg69
(lp3538
g354
asbag62
(g83
g64
NtRp3539
(dp3540
g67
(dp3541
g94
g95
ssg76
g3531
sg69
(lp3542
S':'
asbag62
(g83
g64
NtRp3543
(dp3544
g67
(dp3545
sg76
g3531
sg69
(lp3546
g62
(g63
g64
NtRp3547
(dp3548
g67
(dp3549
g75
I3
ssg76
g3543
sg69
(lp3550
S''
asbasbasbag62
(g78
g64
NtRp3551
(dp3552
g67
(dp3553
sg76
g3487
sg69
(lp3554
g62
(g83
g64
NtRp3555
(dp3556
g67
(dp3557
g87
g88
ssg76
g3551
sg69
(lp3558
g375
asbag62
(g83
g64
NtRp3559
(dp3560
g67
(dp3561
g94
g95
ssg76
g3551
sg69
(lp3562
S':'
asbag62
(g83
g64
NtRp3563
(dp3564
g67
(dp3565
sg76
g3551
sg69
(lp3566
g62
(g63
g64
NtRp3567
(dp3568
g67
(dp3569
g75
I3
ssg76
g3563
sg69
(lp3570
S''
asbasbasbag62
(g78
g64
NtRp3571
(dp3572
g67
(dp3573
sg76
g3487
sg69
(lp3574
g62
(g83
g64
NtRp3575
(dp3576
g67
(dp3577
g87
g88
ssg76
g3571
sg69
(lp3578
g396
asbag62
(g83
g64
NtRp3579
(dp3580
g67
(dp3581
g94
g95
ssg76
g3571
sg69
(lp3582
S':'
asbag62
(g83
g64
NtRp3583
(dp3584
g67
(dp3585
sg76
g3571
sg69
(lp3586
g62
(g63
g64
NtRp3587
(dp3588
g67
(dp3589
g75
I3
ssg76
g3583
sg69
(lp3590
S''
asbasbasbag62
(g78
g64
NtRp3591
(dp3592
g67
(dp3593
sg76
g3487
sg69
(lp3594
g62
(g83
g64
NtRp3595
(dp3596
g67
(dp3597
g87
g88
ssg76
g3591
sg69
(lp3598
g417
asbag62
(g83
g64
NtRp3599
(dp3600
g67
(dp3601
g94
g95
ssg76
g3591
sg69
(lp3602
S':'
asbag62
(g83
g64
NtRp3603
(dp3604
g67
(dp3605
sg76
g3591
sg69
(lp3606
g62
(g63
g64
NtRp3607
(dp3608
g67
(dp3609
g75
I3
ssg76
g3603
sg69
(lp3610
S'/'
asbasbasbag62
(g78
g64
NtRp3611
(dp3612
g67
(dp3613
sg76
g3487
sg69
(lp3614
g62
(g83
g64
NtRp3615
(dp3616
g67
(dp3617
g87
g88
ssg76
g3611
sg69
(lp3618
g438
asbag62
(g83
g64
NtRp3619
(dp3620
g67
(dp3621
g94
g95
ssg76
g3611
sg69
(lp3622
S':'
asbag62
(g83
g64
NtRp3623
(dp3624
g67
(dp3625
sg76
g3611
sg69
(lp3626
g62
(g63
g64
NtRp3627
(dp3628
g67
(dp3629
g75
I3
ssg76
g3623
sg69
(lp3630
S''
asbasbasbag62
(g78
g64
NtRp3631
(dp3632
g67
(dp3633
sg76
g3487
sg69
(lp3634
g62
(g83
g64
NtRp3635
(dp3636
g67
(dp3637
g87
g88
ssg76
g3631
sg69
(lp3638
g459
asbag62
(g83
g64
NtRp3639
(dp3640
g67
(dp3641
g94
g95
ssg76
g3631
sg69
(lp3642
S':'
asbag62
(g83
g64
NtRp3643
(dp3644
g67
(dp3645
sg76
g3631
sg69
(lp3646
g62
(g63
g64
NtRp3647
(dp3648
g67
(dp3649
g75
I3
ssg76
g3643
sg69
(lp3650
S''
asbasbasbasbasbasbasbasbasbasbasbag62
(g78
g64
NtRp3651
(dp3652
g67
(dp3653
sg76
g3417
sg69
(lp3654
g62
(g83
g64
NtRp3655
(dp3656
g67
(dp3657
g87
g88
ssg76
g3651
sg69
(lp3658
S'delimiters'
p3659
asbag62
(g83
g64
NtRp3660
(dp3661
g67
(dp3662
g94
g95
ssg76
g3651
sg69
(lp3663
S':'
asbag62
(g83
g64
NtRp3664
(dp3665
g67
(dp3666
sg76
g3651
sg69
(lp3667
g62
(g63
g64
NtRp3668
(dp3669
g67
(dp3670
g75
I5
ssg76
g3664
sg69
(lp3671
g62
(g71
g64
NtRp3672
(dp3673
g67
(dp3674
g75
I4
ssg76
Nsg69
(lp3675
g62
(g78
g64
NtRp3676
(dp3677
g67
(dp3678
sg76
g3672
sg69
(lp3679
g62
(g83
g64
NtRp3680
(dp3681
g67
(dp3682
sg76
g3676
sg69
(lp3683
g62
(g63
g64
NtRp3684
(dp3685
g67
(dp3686
g75
I4
ssg76
g3680
sg69
(lp3687
S'{{'
p3688
asbasbasbag62
(g78
g64
NtRp3689
(dp3690
g67
(dp3691
sg76
g3672
sg69
(lp3692
g62
(g83
g64
NtRp3693
(dp3694
g67
(dp3695
sg76
g3689
sg69
(lp3696
g62
(g63
g64
NtRp3697
(dp3698
g67
(dp3699
g75
I4
ssg76
g3693
sg69
(lp3700
S'}}'
p3701
asbasbasbasbasbasbasbag62
(g78
g64
NtRp3702
(dp3703
g67
(dp3704
sg76
g3417
sg69
(lp3705
g62
(g83
g64
NtRp3706
(dp3707
g67
(dp3708
g87
g88
ssg76
g3702
sg69
(lp3709
S'files'
p3710
asbag62
(g83
g64
NtRp3711
(dp3712
g67
(dp3713
g94
g95
ssg76
g3702
sg69
(lp3714
S':'
asbag62
(g83
g64
NtRp3715
(dp3716
g67
(dp3717
sg76
g3702
sg69
(lp3718
g62
(g63
g64
NtRp3719
(dp3720
g67
(dp3721
g75
I5
ssg76
g3715
sg69
(lp3722
g62
(g71
g64
NtRp3723
(dp3724
g67
(dp3725
g75
I4
ssg76
Nsg69
(lp3726
g62
(g78
g64
NtRp3727
(dp3728
g67
(dp3729
sg76
g3723
sg69
(lp3730
g62
(g83
g64
NtRp3731
(dp3732
g67
(dp3733
sg76
g3727
sg69
(lp3734
g62
(g63
g64
NtRp3735
(dp3736
g67
(dp3737
g75
I4
ssg76
g3731
sg69
(lp3738
S'/admin/static/plugin_multiselect/jquery.multi-select.js'
p3739
asbasbasbag62
(g78
g64
NtRp3740
(dp3741
g67
(dp3742
sg76
g3723
sg69
(lp3743
g62
(g83
g64
NtRp3744
(dp3745
g67
(dp3746
sg76
g3740
sg69
(lp3747
g62
(g63
g64
NtRp3748
(dp3749
g67
(dp3750
g75
I4
ssg76
g3744
sg69
(lp3751
S'/admin/static/plugin_multiselect/multi-select.css'
p3752
asbasbasbag62
(g78
g64
NtRp3753
(dp3754
g67
(dp3755
sg76
g3723
sg69
(lp3756
g62
(g83
g64
NtRp3757
(dp3758
g67
(dp3759
sg76
g3753
sg69
(lp3760
g62
(g63
g64
NtRp3761
(dp3762
g67
(dp3763
g75
I4
ssg76
g3757
sg69
(lp3764
S'/admin/static/plugin_multiselect/start.js'
p3765
asbasbasbasbasbasbasbag62
(g78
g64
NtRp3766
(dp3767
g67
(dp3768
sg76
g3417
sg69
(lp3769
g62
(g83
g64
NtRp3770
(dp3771
g67
(dp3772
g87
g88
ssg76
g3766
sg69
(lp3773
S'flash'
p3774
asbag62
(g83
g64
NtRp3775
(dp3776
g67
(dp3777
g94
g95
ssg76
g3766
sg69
(lp3778
S':'
asbag62
(g83
g64
NtRp3779
(dp3780
g67
(dp3781
sg76
g3766
sg69
(lp3782
g62
(g63
g64
NtRp3783
(dp3784
g67
(dp3785
g75
I5
ssg76
g3779
sg69
(lp3786
S''
asbasbasbag62
(g78
g64
NtRp3787
(dp3788
g67
(dp3789
sg76
g3417
sg69
(lp3790
g62
(g83
g64
NtRp3791
(dp3792
g67
(dp3793
g87
g88
ssg76
g3787
sg69
(lp3794
S'generic_patterns'
p3795
asbag62
(g83
g64
NtRp3796
(dp3797
g67
(dp3798
g94
g95
ssg76
g3787
sg69
(lp3799
S':'
asbag62
(g83
g64
NtRp3800
(dp3801
g67
(dp3802
sg76
g3787
sg69
(lp3803
g62
(g63
g64
NtRp3804
(dp3805
g67
(dp3806
g75
I5
ssg76
g3800
sg69
(lp3807
g62
(g71
g64
NtRp3808
(dp3809
g67
(dp3810
g75
I4
ssg76
Nsg69
(lp3811
sbasbasbasbag62
(g78
g64
NtRp3812
(dp3813
g67
(dp3814
sg76
g3417
sg69
(lp3815
g62
(g83
g64
NtRp3816
(dp3817
g67
(dp3818
g87
g88
ssg76
g3812
sg69
(lp3819
S'headers'
p3820
asbag62
(g83
g64
NtRp3821
(dp3822
g67
(dp3823
g94
g95
ssg76
g3812
sg69
(lp3824
S':'
asbag62
(g83
g64
NtRp3825
(dp3826
g67
(dp3827
sg76
g3812
sg69
(lp3828
g62
(g63
g64
NtRp3829
(dp3830
g67
(dp3831
g75
I5
ssg76
g3825
sg69
(lp3832
g62
(g71
g64
NtRp3833
(dp3834
g67
(dp3835
g75
I4
ssg76
Nsg69
(lp3836
g62
(g78
g64
NtRp3837
(dp3838
g67
(dp3839
sg76
g3833
sg69
(lp3840
g62
(g83
g64
NtRp3841
(dp3842
g67
(dp3843
g87
g88
ssg76
g3837
sg69
(lp3844
S'X-Powered-By'
p3845
asbag62
(g83
g64
NtRp3846
(dp3847
g67
(dp3848
g94
g95
ssg76
g3837
sg69
(lp3849
S':'
asbag62
(g83
g64
NtRp3850
(dp3851
g67
(dp3852
sg76
g3837
sg69
(lp3853
g62
(g63
g64
NtRp3854
(dp3855
g67
(dp3856
g75
I4
ssg76
g3850
sg69
(lp3857
S'web2py'
p3858
asbasbasbasbasbasbasbag62
(g78
g64
NtRp3859
(dp3860
g67
(dp3861
sg76
g3417
sg69
(lp3862
g62
(g83
g64
NtRp3863
(dp3864
g67
(dp3865
g87
g88
ssg76
g3859
sg69
(lp3866
S'menu'
p3867
asbag62
(g83
g64
NtRp3868
(dp3869
g67
(dp3870
g94
g95
ssg76
g3859
sg69
(lp3871
S':'
asbag62
(g83
g64
NtRp3872
(dp3873
g67
(dp3874
sg76
g3859
sg69
(lp3875
g62
(g63
g64
NtRp3876
(dp3877
g67
(dp3878
g75
I5
ssg76
g3872
sg69
(lp3879
g62
(g71
g64
NtRp3880
(dp3881
g67
(dp3882
g75
I4
ssg76
Nsg69
(lp3883
g62
(g78
g64
NtRp3884
(dp3885
g67
(dp3886
sg76
g3880
sg69
(lp3887
g62
(g83
g64
NtRp3888
(dp3889
g67
(dp3890
sg76
g3884
sg69
(lp3891
g62
(g63
g64
NtRp3892
(dp3893
g67
(dp3894
g75
I4
ssg76
g3888
sg69
(lp3895
g62
(g71
g64
NtRp3896
(dp3897
g67
(dp3898
g75
I3
ssg76
Nsg69
(lp3899
g62
(g78
g64
NtRp3900
(dp3901
g67
(dp3902
sg76
g3896
sg69
(lp3903
g62
(g83
g64
NtRp3904
(dp3905
g67
(dp3906
sg76
g3900
sg69
(lp3907
g62
(g63
g64
NtRp3908
(dp3909
g67
(dp3910
g75
I3
ssg76
g3904
sg69
(lp3911
cgluon.languages
lazyT_unpickle
p3912
(S's\x04\x00\x00\x00site'
tRp3913
asbasbasbag62
(g78
g64
NtRp3914
(dp3915
g67
(dp3916
sg76
g3896
sg69
(lp3917
g62
(g83
g64
NtRp3918
(dp3919
g67
(dp3920
sg76
g3914
sg69
(lp3921
g62
(g63
g64
NtRp3922
(dp3923
g67
(dp3924
g75
I3
ssg76
g3918
sg69
(lp3925
g105
asbasbasbag62
(g78
g64
NtRp3926
(dp3927
g67
(dp3928
sg76
g3896
sg69
(lp3929
g62
(g83
g64
NtRp3930
(dp3931
g67
(dp3932
sg76
g3926
sg69
(lp3933
g62
(g63
g64
NtRp3934
(dp3935
g67
(dp3936
g75
I3
ssg76
g3930
sg69
(lp3937
S'/admin/site'
p3938
asbasbasbasbasbasbasbag62
(g78
g64
NtRp3939
(dp3940
g67
(dp3941
sg76
g3880
sg69
(lp3942
g62
(g83
g64
NtRp3943
(dp3944
g67
(dp3945
sg76
g3939
sg69
(lp3946
g62
(g63
g64
NtRp3947
(dp3948
g67
(dp3949
g75
I4
ssg76
g3943
sg69
(lp3950
g62
(g71
g64
NtRp3951
(dp3952
g67
(dp3953
g75
I3
ssg76
Nsg69
(lp3954
g62
(g78
g64
NtRp3955
(dp3956
g67
(dp3957
sg76
g3951
sg69
(lp3958
g62
(g83
g64
NtRp3959
(dp3960
g67
(dp3961
sg76
g3955
sg69
(lp3962
g62
(g63
g64
NtRp3963
(dp3964
g67
(dp3965
g75
I3
ssg76
g3959
sg69
(lp3966
g3912
(S's\x06\x00\x00\x00editar'
tRp3967
asbasbasbag62
(g78
g64
NtRp3968
(dp3969
g67
(dp3970
sg76
g3951
sg69
(lp3971
g62
(g83
g64
NtRp3972
(dp3973
g67
(dp3974
sg76
g3968
sg69
(lp3975
g62
(g63
g64
NtRp3976
(dp3977
g67
(dp3978
g75
I3
ssg76
g3972
sg69
(lp3979
g1666
asbasbasbag62
(g78
g64
NtRp3980
(dp3981
g67
(dp3982
sg76
g3951
sg69
(lp3983
g62
(g83
g64
NtRp3984
(dp3985
g67
(dp3986
sg76
g3980
sg69
(lp3987
g62
(g63
g64
NtRp3988
(dp3989
g67
(dp3990
g75
I3
ssg76
g3984
sg69
(lp3991
S'/admin/design/dashboard'
p3992
asbasbasbasbasbasbasbag62
(g78
g64
NtRp3993
(dp3994
g67
(dp3995
sg76
g3880
sg69
(lp3996
g62
(g83
g64
NtRp3997
(dp3998
g67
(dp3999
sg76
g3993
sg69
(lp4000
g62
(g63
g64
NtRp4001
(dp4002
g67
(dp4003
g75
I4
ssg76
g3997
sg69
(lp4004
g62
(g71
g64
NtRp4005
(dp4006
g67
(dp4007
g75
I3
ssg76
Nsg69
(lp4008
g62
(g78
g64
NtRp4009
(dp4010
g67
(dp4011
sg76
g4005
sg69
(lp4012
g62
(g83
g64
NtRp4013
(dp4014
g67
(dp4015
sg76
g4009
sg69
(lp4016
g62
(g63
g64
NtRp4017
(dp4018
g67
(dp4019
g75
I3
ssg76
g4013
sg69
(lp4020
g3912
(S's\x05\x00\x00\x00sobre'
tRp4021
asbasbasbag62
(g78
g64
NtRp4022
(dp4023
g67
(dp4024
sg76
g4005
sg69
(lp4025
g62
(g83
g64
NtRp4026
(dp4027
g67
(dp4028
sg76
g4022
sg69
(lp4029
g62
(g63
g64
NtRp4030
(dp4031
g67
(dp4032
g75
I3
ssg76
g4026
sg69
(lp4033
g105
asbasbasbag62
(g78
g64
NtRp4034
(dp4035
g67
(dp4036
sg76
g4005
sg69
(lp4037
g62
(g83
g64
NtRp4038
(dp4039
g67
(dp4040
sg76
g4034
sg69
(lp4041
g62
(g63
g64
NtRp4042
(dp4043
g67
(dp4044
g75
I3
ssg76
g4038
sg69
(lp4045
S'/admin/about/dashboard'
p4046
asbasbasbasbasbasbasbag62
(g78
g64
NtRp4047
(dp4048
g67
(dp4049
sg76
g3880
sg69
(lp4050
g62
(g83
g64
NtRp4051
(dp4052
g67
(dp4053
sg76
g4047
sg69
(lp4054
g62
(g63
g64
NtRp4055
(dp4056
g67
(dp4057
g75
I4
ssg76
g4051
sg69
(lp4058
g62
(g71
g64
NtRp4059
(dp4060
g67
(dp4061
g75
I3
ssg76
Nsg69
(lp4062
g62
(g78
g64
NtRp4063
(dp4064
g67
(dp4065
sg76
g4059
sg69
(lp4066
g62
(g83
g64
NtRp4067
(dp4068
g67
(dp4069
sg76
g4063
sg69
(lp4070
g62
(g63
g64
NtRp4071
(dp4072
g67
(dp4073
g75
I3
ssg76
g4067
sg69
(lp4074
g3912
(S's\x05\x00\x00\x00erros'
tRp4075
asbasbasbag62
(g78
g64
NtRp4076
(dp4077
g67
(dp4078
sg76
g4059
sg69
(lp4079
g62
(g83
g64
NtRp4080
(dp4081
g67
(dp4082
sg76
g4076
sg69
(lp4083
g62
(g63
g64
NtRp4084
(dp4085
g67
(dp4086
g75
I3
ssg76
g4080
sg69
(lp4087
g105
asbasbasbag62
(g78
g64
NtRp4088
(dp4089
g67
(dp4090
sg76
g4059
sg69
(lp4091
g62
(g83
g64
NtRp4092
(dp4093
g67
(dp4094
sg76
g4088
sg69
(lp4095
g62
(g63
g64
NtRp4096
(dp4097
g67
(dp4098
g75
I3
ssg76
g4092
sg69
(lp4099
S'/admin/errors/dashboard'
p4100
asbasbasbasbasbasbasbag62
(g78
g64
NtRp4101
(dp4102
g67
(dp4103
sg76
g3880
sg69
(lp4104
g62
(g83
g64
NtRp4105
(dp4106
g67
(dp4107
sg76
g4101
sg69
(lp4108
g62
(g63
g64
NtRp4109
(dp4110
g67
(dp4111
g75
I4
ssg76
g4105
sg69
(lp4112
g62
(g71
g64
NtRp4113
(dp4114
g67
(dp4115
g75
I3
ssg76
Nsg69
(lp4116
g62
(g78
g64
NtRp4117
(dp4118
g67
(dp4119
sg76
g4113
sg69
(lp4120
g62
(g83
g64
NtRp4121
(dp4122
g67
(dp4123
sg76
g4117
sg69
(lp4124
g62
(g63
g64
NtRp4125
(dp4126
g67
(dp4127
g75
I3
ssg76
g4121
sg69
(lp4128
g3912
(S's\n\x00\x00\x00Versioning'
tRp4129
asbasbasbag62
(g78
g64
NtRp4130
(dp4131
g67
(dp4132
sg76
g4113
sg69
(lp4133
g62
(g83
g64
NtRp4134
(dp4135
g67
(dp4136
sg76
g4130
sg69
(lp4137
g62
(g63
g64
NtRp4138
(dp4139
g67
(dp4140
g75
I3
ssg76
g4134
sg69
(lp4141
g105
asbasbasbag62
(g78
g64
NtRp4142
(dp4143
g67
(dp4144
sg76
g4113
sg69
(lp4145
g62
(g83
g64
NtRp4146
(dp4147
g67
(dp4148
sg76
g4142
sg69
(lp4149
g62
(g63
g64
NtRp4150
(dp4151
g67
(dp4152
g75
I3
ssg76
g4146
sg69
(lp4153
S'/admin/mercurial/commit/dashboard'
p4154
asbasbasbasbasbasbasbag62
(g78
g64
NtRp4155
(dp4156
g67
(dp4157
sg76
g3880
sg69
(lp4158
g62
(g83
g64
NtRp4159
(dp4160
g67
(dp4161
sg76
g4155
sg69
(lp4162
g62
(g63
g64
NtRp4163
(dp4164
g67
(dp4165
g75
I4
ssg76
g4159
sg69
(lp4166
g62
(g71
g64
NtRp4167
(dp4168
g67
(dp4169
g75
I3
ssg76
Nsg69
(lp4170
g62
(g78
g64
NtRp4171
(dp4172
g67
(dp4173
sg76
g4167
sg69
(lp4174
g62
(g83
g64
NtRp4175
(dp4176
g67
(dp4177
sg76
g4171
sg69
(lp4178
g62
(g63
g64
NtRp4179
(dp4180
g67
(dp4181
g75
I3
ssg76
g4175
sg69
(lp4182
g3912
(S's\x11\x00\x00\x00finalizar sess\xc3\xa3o'
tRp4183
asbasbasbag62
(g78
g64
NtRp4184
(dp4185
g67
(dp4186
sg76
g4167
sg69
(lp4187
g62
(g83
g64
NtRp4188
(dp4189
g67
(dp4190
sg76
g4184
sg69
(lp4191
g62
(g63
g64
NtRp4192
(dp4193
g67
(dp4194
g75
I3
ssg76
g4188
sg69
(lp4195
g105
asbasbasbag62
(g78
g64
NtRp4196
(dp4197
g67
(dp4198
sg76
g4167
sg69
(lp4199
g62
(g83
g64
NtRp4200
(dp4201
g67
(dp4202
sg76
g4196
sg69
(lp4203
g62
(g63
g64
NtRp4204
(dp4205
g67
(dp4206
g75
I3
ssg76
g4200
sg69
(lp4207
S'/admin/logout'
p4208
asbasbasbasbasbasbasbag62
(g78
g64
NtRp4209
(dp4210
g67
(dp4211
sg76
g3880
sg69
(lp4212
g62
(g83
g64
NtRp4213
(dp4214
g67
(dp4215
sg76
g4209
sg69
(lp4216
g62
(g63
g64
NtRp4217
(dp4218
g67
(dp4219
g75
I4
ssg76
g4213
sg69
(lp4220
g62
(g71
g64
NtRp4221
(dp4222
g67
(dp4223
g75
I3
ssg76
Nsg69
(lp4224
g62
(g78
g64
NtRp4225
(dp4226
g67
(dp4227
sg76
g4221
sg69
(lp4228
g62
(g83
g64
NtRp4229
(dp4230
g67
(dp4231
sg76
g4225
sg69
(lp4232
g62
(g63
g64
NtRp4233
(dp4234
g67
(dp4235
g75
I3
ssg76
g4229
sg69
(lp4236
g3912
(S's\x05\x00\x00\x00Debug'
tRp4237
asbasbasbag62
(g78
g64
NtRp4238
(dp4239
g67
(dp4240
sg76
g4221
sg69
(lp4241
g62
(g83
g64
NtRp4242
(dp4243
g67
(dp4244
sg76
g4238
sg69
(lp4245
g62
(g63
g64
NtRp4246
(dp4247
g67
(dp4248
g75
I3
ssg76
g4242
sg69
(lp4249
g105
asbasbasbag62
(g78
g64
NtRp4250
(dp4251
g67
(dp4252
sg76
g4221
sg69
(lp4253
g62
(g83
g64
NtRp4254
(dp4255
g67
(dp4256
sg76
g4250
sg69
(lp4257
g62
(g63
g64
NtRp4258
(dp4259
g67
(dp4260
g75
I3
ssg76
g4254
sg69
(lp4261
S'/admin/debug/interact'
p4262
asbasbasbasbasbasbasbag62
(g78
g64
NtRp4263
(dp4264
g67
(dp4265
sg76
g3880
sg69
(lp4266
g62
(g83
g64
NtRp4267
(dp4268
g67
(dp4269
sg76
g4263
sg69
(lp4270
g62
(g63
g64
NtRp4271
(dp4272
g67
(dp4273
g75
I4
ssg76
g4267
sg69
(lp4274
g62
(g71
g64
NtRp4275
(dp4276
g67
(dp4277
g75
I3
ssg76
Nsg69
(lp4278
g62
(g78
g64
NtRp4279
(dp4280
g67
(dp4281
sg76
g4275
sg69
(lp4282
g62
(g83
g64
NtRp4283
(dp4284
g67
(dp4285
sg76
g4279
sg69
(lp4286
g62
(g63
g64
NtRp4287
(dp4288
g67
(dp4289
g75
I3
ssg76
g4283
sg69
(lp4290
g3912
(S's\x05\x00\x00\x00ajuda'
tRp4291
asbasbasbag62
(g78
g64
NtRp4292
(dp4293
g67
(dp4294
sg76
g4275
sg69
(lp4295
g62
(g83
g64
NtRp4296
(dp4297
g67
(dp4298
sg76
g4292
sg69
(lp4299
g62
(g63
g64
NtRp4300
(dp4301
g67
(dp4302
g75
I3
ssg76
g4296
sg69
(lp4303
g105
asbasbasbag62
(g78
g64
NtRp4304
(dp4305
g67
(dp4306
sg76
g4275
sg69
(lp4307
g62
(g83
g64
NtRp4308
(dp4309
g67
(dp4310
sg76
g4304
sg69
(lp4311
g62
(g63
g64
NtRp4312
(dp4313
g67
(dp4314
g75
I3
ssg76
g4308
sg69
(lp4315
S'http://web2py.com/examples'
p4316
asbasbasbasbasbasbasbasbasbasbasbag62
(g78
g64
NtRp4317
(dp4318
g67
(dp4319
sg76
g3417
sg69
(lp4320
g62
(g83
g64
NtRp4321
(dp4322
g67
(dp4323
g87
g88
ssg76
g4317
sg69
(lp4324
S'meta'
p4325
asbag62
(g83
g64
NtRp4326
(dp4327
g67
(dp4328
g94
g95
ssg76
g4317
sg69
(lp4329
S':'
asbag62
(g83
g64
NtRp4330
(dp4331
g67
(dp4332
sg76
g4317
sg69
(lp4333
g62
(g63
g64
NtRp4334
(dp4335
g67
(dp4336
g75
I5
ssg76
g4330
sg69
(lp4337
g62
(g71
g64
NtRp4338
(dp4339
g67
(dp4340
g75
I4
ssg76
Nsg69
(lp4341
sbasbasbasbag62
(g78
g64
NtRp4342
(dp4343
g67
(dp4344
sg76
g3417
sg69
(lp4345
g62
(g83
g64
NtRp4346
(dp4347
g67
(dp4348
g87
g88
ssg76
g4342
sg69
(lp4349
S'models_to_run'
p4350
asbag62
(g83
g64
NtRp4351
(dp4352
g67
(dp4353
g94
g95
ssg76
g4342
sg69
(lp4354
S':'
asbag62
(g83
g64
NtRp4355
(dp4356
g67
(dp4357
sg76
g4342
sg69
(lp4358
g62
(g63
g64
NtRp4359
(dp4360
g67
(dp4361
g75
I5
ssg76
g4355
sg69
(lp4362
g62
(g71
g64
NtRp4363
(dp4364
g67
(dp4365
g75
I4
ssg76
Nsg69
(lp4366
g62
(g78
g64
NtRp4367
(dp4368
g67
(dp4369
sg76
g4363
sg69
(lp4370
g62
(g83
g64
NtRp4371
(dp4372
g67
(dp4373
sg76
g4367
sg69
(lp4374
g62
(g63
g64
NtRp4375
(dp4376
g67
(dp4377
g75
I4
ssg76
g4371
sg69
(lp4378
S'^\\w+\\.py$'
p4379
asbasbasbag62
(g78
g64
NtRp4380
(dp4381
g67
(dp4382
sg76
g4363
sg69
(lp4383
g62
(g83
g64
NtRp4384
(dp4385
g67
(dp4386
sg76
g4380
sg69
(lp4387
g62
(g63
g64
NtRp4388
(dp4389
g67
(dp4390
g75
I4
ssg76
g4384
sg69
(lp4391
S'^default/\\w+\\.py$'
p4392
asbasbasbag62
(g78
g64
NtRp4393
(dp4394
g67
(dp4395
sg76
g4363
sg69
(lp4396
g62
(g83
g64
NtRp4397
(dp4398
g67
(dp4399
sg76
g4393
sg69
(lp4400
g62
(g63
g64
NtRp4401
(dp4402
g67
(dp4403
g75
I4
ssg76
g4397
sg69
(lp4404
S'^default/design/\\w+\\.py$'
p4405
asbasbasbasbasbasbasbag62
(g78
g64
NtRp4406
(dp4407
g67
(dp4408
sg76
g3417
sg69
(lp4409
g62
(g83
g64
NtRp4410
(dp4411
g67
(dp4412
g87
g88
ssg76
g4406
sg69
(lp4413
S'postprocessing'
p4414
asbag62
(g83
g64
NtRp4415
(dp4416
g67
(dp4417
g94
g95
ssg76
g4406
sg69
(lp4418
S':'
asbag62
(g83
g64
NtRp4419
(dp4420
g67
(dp4421
sg76
g4406
sg69
(lp4422
g62
(g63
g64
NtRp4423
(dp4424
g67
(dp4425
g75
I5
ssg76
g4419
sg69
(lp4426
g62
(g71
g64
NtRp4427
(dp4428
g67
(dp4429
g75
I4
ssg76
Nsg69
(lp4430
sbasbasbasbag62
(g78
g64
NtRp4431
(dp4432
g67
(dp4433
sg76
g3417
sg69
(lp4434
g62
(g83
g64
NtRp4435
(dp4436
g67
(dp4437
g87
g88
ssg76
g4431
sg69
(lp4438
S'session_cookie_expires'
p4439
asbag62
(g83
g64
NtRp4440
(dp4441
g67
(dp4442
g94
g95
ssg76
g4431
sg69
(lp4443
S':'
asbag62
(g83
g64
NtRp4444
(dp4445
g67
(dp4446
sg76
g4431
sg69
(lp4447
g62
(g63
g64
NtRp4448
(dp4449
g67
(dp4450
g75
I5
ssg76
g4444
sg69
(lp4451
S'None'
p4452
asbasbasbag62
(g78
g64
NtRp4453
(dp4454
g67
(dp4455
sg76
g3417
sg69
(lp4456
g62
(g83
g64
NtRp4457
(dp4458
g67
(dp4459
g87
g88
ssg76
g4453
sg69
(lp4460
S'session_data_name'
p4461
asbag62
(g83
g64
NtRp4462
(dp4463
g67
(dp4464
g94
g95
ssg76
g4453
sg69
(lp4465
S':'
asbag62
(g83
g64
NtRp4466
(dp4467
g67
(dp4468
sg76
g4453
sg69
(lp4469
g62
(g63
g64
NtRp4470
(dp4471
g67
(dp4472
g75
I5
ssg76
g4466
sg69
(lp4473
S'session_data_admin'
p4474
asbasbasbag62
(g78
g64
NtRp4475
(dp4476
g67
(dp4477
sg76
g3417
sg69
(lp4478
g62
(g83
g64
NtRp4479
(dp4480
g67
(dp4481
g87
g88
ssg76
g4475
sg69
(lp4482
S'session_file'
p4483
asbag62
(g83
g64
NtRp4484
(dp4485
g67
(dp4486
g94
g95
ssg76
g4475
sg69
(lp4487
S':'
asbag62
(g83
g64
NtRp4488
(dp4489
g67
(dp4490
sg76
g4475
sg69
(lp4491
g62
(g63
g64
NtRp4492
(dp4493
g67
(dp4494
g75
I5
ssg76
g4488
sg69
(lp4495
S"<open file '/opt/smb4manager/applications/admin/sessions/192.168.20.23-bb6d7022-37ea-42bf-aba2-3cf5b4b8fb51', mode 'rb+' at 0x8e2ba70>"
p4496
asbasbasbag62
(g78
g64
NtRp4497
(dp4498
g67
(dp4499
sg76
g3417
sg69
(lp4500
g62
(g83
g64
NtRp4501
(dp4502
g67
(dp4503
g87
g88
ssg76
g4497
sg69
(lp4504
S'session_filename'
p4505
asbag62
(g83
g64
NtRp4506
(dp4507
g67
(dp4508
g94
g95
ssg76
g4497
sg69
(lp4509
S':'
asbag62
(g83
g64
NtRp4510
(dp4511
g67
(dp4512
sg76
g4497
sg69
(lp4513
g62
(g63
g64
NtRp4514
(dp4515
g67
(dp4516
g75
I5
ssg76
g4510
sg69
(lp4517
S'/opt/smb4manager/applications/admin/sessions/192.168.20.23-bb6d7022-37ea-42bf-aba2-3cf5b4b8fb51'
p4518
asbasbasbag62
(g78
g64
NtRp4519
(dp4520
g67
(dp4521
sg76
g3417
sg69
(lp4522
g62
(g83
g64
NtRp4523
(dp4524
g67
(dp4525
g87
g88
ssg76
g4519
sg69
(lp4526
S'session_id'
p4527
asbag62
(g83
g64
NtRp4528
(dp4529
g67
(dp4530
g94
g95
ssg76
g4519
sg69
(lp4531
S':'
asbag62
(g83
g64
NtRp4532
(dp4533
g67
(dp4534
sg76
g4519
sg69
(lp4535
g62
(g63
g64
NtRp4536
(dp4537
g67
(dp4538
g75
I5
ssg76
g4532
sg69
(lp4539
g299
asbasbasbag62
(g78
g64
NtRp4540
(dp4541
g67
(dp4542
sg76
g3417
sg69
(lp4543
g62
(g83
g64
NtRp4544
(dp4545
g67
(dp4546
g87
g88
ssg76
g4540
sg69
(lp4547
S'session_id_name'
p4548
asbag62
(g83
g64
NtRp4549
(dp4550
g67
(dp4551
g94
g95
ssg76
g4540
sg69
(lp4552
S':'
asbag62
(g83
g64
NtRp4553
(dp4554
g67
(dp4555
sg76
g4540
sg69
(lp4556
g62
(g63
g64
NtRp4557
(dp4558
g67
(dp4559
g75
I5
ssg76
g4553
sg69
(lp4560
g3474
asbasbasbag62
(g78
g64
NtRp4561
(dp4562
g67
(dp4563
sg76
g3417
sg69
(lp4564
g62
(g83
g64
NtRp4565
(dp4566
g67
(dp4567
g87
g88
ssg76
g4561
sg69
(lp4568
S'session_locked'
p4569
asbag62
(g83
g64
NtRp4570
(dp4571
g67
(dp4572
g94
g95
ssg76
g4561
sg69
(lp4573
S':'
asbag62
(g83
g64
NtRp4574
(dp4575
g67
(dp4576
sg76
g4561
sg69
(lp4577
g62
(g63
g64
NtRp4578
(dp4579
g67
(dp4580
g75
I5
ssg76
g4574
sg69
(lp4581
g1666
asbasbasbag62
(g78
g64
NtRp4582
(dp4583
g67
(dp4584
sg76
g3417
sg69
(lp4585
g62
(g83
g64
NtRp4586
(dp4587
g67
(dp4588
g87
g88
ssg76
g4582
sg69
(lp4589
S'session_new'
p4590
asbag62
(g83
g64
NtRp4591
(dp4592
g67
(dp4593
g94
g95
ssg76
g4582
sg69
(lp4594
S':'
asbag62
(g83
g64
NtRp4595
(dp4596
g67
(dp4597
sg76
g4582
sg69
(lp4598
g62
(g63
g64
NtRp4599
(dp4600
g67
(dp4601
g75
I5
ssg76
g4595
sg69
(lp4602
g105
asbasbasbag62
(g78
g64
NtRp4603
(dp4604
g67
(dp4605
sg76
g3417
sg69
(lp4606
g62
(g83
g64
NtRp4607
(dp4608
g67
(dp4609
g87
g88
ssg76
g4603
sg69
(lp4610
S'session_storage_type'
p4611
asbag62
(g83
g64
NtRp4612
(dp4613
g67
(dp4614
g94
g95
ssg76
g4603
sg69
(lp4615
S':'
asbag62
(g83
g64
NtRp4616
(dp4617
g67
(dp4618
sg76
g4603
sg69
(lp4619
g62
(g63
g64
NtRp4620
(dp4621
g67
(dp4622
g75
I5
ssg76
g4616
sg69
(lp4623
g3118
asbasbasbag62
(g78
g64
NtRp4624
(dp4625
g67
(dp4626
sg76
g3417
sg69
(lp4627
g62
(g83
g64
NtRp4628
(dp4629
g67
(dp4630
g87
g88
ssg76
g4624
sg69
(lp4631
S'status'
p4632
asbag62
(g83
g64
NtRp4633
(dp4634
g67
(dp4635
g94
g95
ssg76
g4624
sg69
(lp4636
S':'
asbag62
(g83
g64
NtRp4637
(dp4638
g67
(dp4639
sg76
g4624
sg69
(lp4640
g62
(g63
g64
NtRp4641
(dp4642
g67
(dp4643
g75
I5
ssg76
g4637
sg69
(lp4644
S'200'
p4645
asbasbasbag62
(g78
g64
NtRp4646
(dp4647
g67
(dp4648
sg76
g3417
sg69
(lp4649
g62
(g83
g64
NtRp4650
(dp4651
g67
(dp4652
g87
g88
ssg76
g4646
sg69
(lp4653
S'subtitle'
p4654
asbag62
(g83
g64
NtRp4655
(dp4656
g67
(dp4657
g94
g95
ssg76
g4646
sg69
(lp4658
S':'
asbag62
(g83
g64
NtRp4659
(dp4660
g67
(dp4661
sg76
g4646
sg69
(lp4662
g62
(g63
g64
NtRp4663
(dp4664
g67
(dp4665
g75
I5
ssg76
g4659
sg69
(lp4666
S'admin'
p4667
asbasbasbag62
(g78
g64
NtRp4668
(dp4669
g67
(dp4670
sg76
g3417
sg69
(lp4671
g62
(g83
g64
NtRp4672
(dp4673
g67
(dp4674
g87
g88
ssg76
g4668
sg69
(lp4675
S'title'
p4676
asbag62
(g83
g64
NtRp4677
(dp4678
g67
(dp4679
g94
g95
ssg76
g4668
sg69
(lp4680
S':'
asbag62
(g83
g64
NtRp4681
(dp4682
g67
(dp4683
sg76
g4668
sg69
(lp4684
g62
(g63
g64
NtRp4685
(dp4686
g67
(dp4687
g75
I5
ssg76
g4681
sg69
(lp4688
S'design dashboard'
p4689
asbasbasbag62
(g78
g64
NtRp4690
(dp4691
g67
(dp4692
sg76
g3417
sg69
(lp4693
g62
(g83
g64
NtRp4694
(dp4695
g67
(dp4696
g87
g88
ssg76
g4690
sg69
(lp4697
S'view'
p4698
asbag62
(g83
g64
NtRp4699
(dp4700
g67
(dp4701
g94
g95
ssg76
g4690
sg69
(lp4702
S':'
asbag62
(g83
g64
NtRp4703
(dp4704
g67
(dp4705
sg76
g4690
sg69
(lp4706
g62
(g63
g64
NtRp4707
(dp4708
g67
(dp4709
g75
I5
ssg76
g4703
sg69
(lp4710
S'default/design.html'
p4711
asbasbasbasbasbsS'locals'
p4712
(dp4713
S'get_lang_struct'
p4714
S'<function get_lang_struct>'
p4715
sS'plurals'
p4716
g19
sS'langdir'
p4717
S"'/opt/smb4manager/applications/dashboard/languages/languages'"
p4718
sssS'traceback'
p4719
S'Traceback (most recent call last):\n  File "/opt/smb4manager/gluon/restricted.py", line 212, in restricted\n    exec ccode in environment\n  File "/opt/smb4manager/applications/admin/controllers/default.py", line 1787, in <module>\n  File "/opt/smb4manager/gluon/globals.py", line 188, in <lambda>\n    self._caller = lambda f: f()\n  File "/opt/smb4manager/applications/admin/controllers/default.py", line 1013, in design\n    in read_possible_languages(langpath).iteritems()\n  File "/opt/smb4manager/gluon/languages.py", line 267, in read_possible_languages\n    lambda: read_possible_languages_aux(langdir))\n  File "/opt/smb4manager/gluon/cfs.py", line 40, in getcfs\n    return filter() if callable(filter) else \'\'\n  File "/opt/smb4manager/gluon/languages.py", line 267, in <lambda>\n    lambda: read_possible_languages_aux(langdir))\n  File "/opt/smb4manager/gluon/languages.py", line 231, in read_possible_languages_aux\n    flist = oslistdir(langdir)\nOSError: [Errno 2] No such file or directory: \'/opt/smb4manager/applications/dashboard/languages/languages\'\n'
p4720
s.